
hello.exe:     file format pei-i386


Disassembly of section .text:

00401000 <.text>:
  401000:	55                   	push   %ebp
  401001:	8b ec                	mov    %esp,%ebp
  401003:	68 30 70 40 00       	push   $0x407030
  401008:	e8 07 00 00 00       	call   0x401014
  40100d:	83 c4 04             	add    $0x4,%esp
  401010:	33 c0                	xor    %eax,%eax
  401012:	5d                   	pop    %ebp
  401013:	c3                   	ret    
  401014:	53                   	push   %ebx
  401015:	56                   	push   %esi
  401016:	be 70 70 40 00       	mov    $0x407070,%esi
  40101b:	57                   	push   %edi
  40101c:	56                   	push   %esi
  40101d:	e8 4b 01 00 00       	call   0x40116d
  401022:	8b f8                	mov    %eax,%edi
  401024:	8d 44 24 18          	lea    0x18(%esp),%eax
  401028:	50                   	push   %eax
  401029:	ff 74 24 18          	pushl  0x18(%esp)
  40102d:	56                   	push   %esi
  40102e:	e8 04 02 00 00       	call   0x401237
  401033:	56                   	push   %esi
  401034:	57                   	push   %edi
  401035:	8b d8                	mov    %eax,%ebx
  401037:	e8 be 01 00 00       	call   0x4011fa
  40103c:	83 c4 18             	add    $0x18,%esp
  40103f:	8b c3                	mov    %ebx,%eax
  401041:	5f                   	pop    %edi
  401042:	5e                   	pop    %esi
  401043:	5b                   	pop    %ebx
  401044:	c3                   	ret    
  401045:	55                   	push   %ebp
  401046:	8b ec                	mov    %esp,%ebp
  401048:	6a ff                	push   $0xffffffff
  40104a:	68 b0 60 40 00       	push   $0x4060b0
  40104f:	68 30 26 40 00       	push   $0x402630
  401054:	64 a1 00 00 00 00    	mov    %fs:0x0,%eax
  40105a:	50                   	push   %eax
  40105b:	64 89 25 00 00 00 00 	mov    %esp,%fs:0x0
  401062:	83 ec 10             	sub    $0x10,%esp
  401065:	53                   	push   %ebx
  401066:	56                   	push   %esi
  401067:	57                   	push   %edi
  401068:	89 65 e8             	mov    %esp,-0x18(%ebp)
  40106b:	ff 15 04 60 40 00    	call   *0x406004
  401071:	33 d2                	xor    %edx,%edx
  401073:	8a d4                	mov    %ah,%dl
  401075:	89 15 18 99 40 00    	mov    %edx,0x409918
  40107b:	8b c8                	mov    %eax,%ecx
  40107d:	81 e1 ff 00 00 00    	and    $0xff,%ecx
  401083:	89 0d 14 99 40 00    	mov    %ecx,0x409914
  401089:	c1 e1 08             	shl    $0x8,%ecx
  40108c:	03 ca                	add    %edx,%ecx
  40108e:	89 0d 10 99 40 00    	mov    %ecx,0x409910
  401094:	c1 e8 10             	shr    $0x10,%eax
  401097:	a3 0c 99 40 00       	mov    %eax,0x40990c
  40109c:	6a 00                	push   $0x0
  40109e:	e8 35 14 00 00       	call   0x4024d8
  4010a3:	59                   	pop    %ecx
  4010a4:	85 c0                	test   %eax,%eax
  4010a6:	75 08                	jne    0x4010b0
  4010a8:	6a 1c                	push   $0x1c
  4010aa:	e8 9a 00 00 00       	call   0x401149
  4010af:	59                   	pop    %ecx
  4010b0:	83 65 fc 00          	andl   $0x0,-0x4(%ebp)
  4010b4:	e8 ff 10 00 00       	call   0x4021b8
  4010b9:	ff 15 00 60 40 00    	call   *0x406000
  4010bf:	a3 24 ae 40 00       	mov    %eax,0x40ae24
  4010c4:	e8 bd 0f 00 00       	call   0x402086
  4010c9:	a3 e8 98 40 00       	mov    %eax,0x4098e8
  4010ce:	e8 66 0d 00 00       	call   0x401e39
  4010d3:	e8 a8 0c 00 00       	call   0x401d80
  4010d8:	e8 1d 0a 00 00       	call   0x401afa
  4010dd:	a1 28 99 40 00       	mov    0x409928,%eax
  4010e2:	a3 2c 99 40 00       	mov    %eax,0x40992c
  4010e7:	50                   	push   %eax
  4010e8:	ff 35 20 99 40 00    	pushl  0x409920
  4010ee:	ff 35 1c 99 40 00    	pushl  0x40991c
  4010f4:	e8 07 ff ff ff       	call   0x401000
  4010f9:	83 c4 0c             	add    $0xc,%esp
  4010fc:	89 45 e4             	mov    %eax,-0x1c(%ebp)
  4010ff:	50                   	push   %eax
  401100:	e8 22 0a 00 00       	call   0x401b27
  401105:	8b 45 ec             	mov    -0x14(%ebp),%eax
  401108:	8b 08                	mov    (%eax),%ecx
  40110a:	8b 09                	mov    (%ecx),%ecx
  40110c:	89 4d e0             	mov    %ecx,-0x20(%ebp)
  40110f:	50                   	push   %eax
  401110:	51                   	push   %ecx
  401111:	e8 e6 0a 00 00       	call   0x401bfc
  401116:	59                   	pop    %ecx
  401117:	59                   	pop    %ecx
  401118:	c3                   	ret    
  401119:	8b 65 e8             	mov    -0x18(%ebp),%esp
  40111c:	ff 75 e0             	pushl  -0x20(%ebp)
  40111f:	e8 14 0a 00 00       	call   0x401b38
  401124:	83 3d f0 98 40 00 02 	cmpl   $0x2,0x4098f0
  40112b:	74 05                	je     0x401132
  40112d:	e8 d6 15 00 00       	call   0x402708
  401132:	ff 74 24 04          	pushl  0x4(%esp)
  401136:	e8 06 16 00 00       	call   0x402741
  40113b:	68 ff 00 00 00       	push   $0xff
  401140:	ff 15 40 70 40 00    	call   *0x407040
  401146:	59                   	pop    %ecx
  401147:	59                   	pop    %ecx
  401148:	c3                   	ret    
  401149:	83 3d f0 98 40 00 02 	cmpl   $0x2,0x4098f0
  401150:	74 05                	je     0x401157
  401152:	e8 b1 15 00 00       	call   0x402708
  401157:	ff 74 24 04          	pushl  0x4(%esp)
  40115b:	e8 e1 15 00 00       	call   0x402741
  401160:	59                   	pop    %ecx
  401161:	68 ff 00 00 00       	push   $0xff
  401166:	ff 15 08 60 40 00    	call   *0x406008
  40116c:	c3                   	ret    
  40116d:	56                   	push   %esi
  40116e:	8b 74 24 08          	mov    0x8(%esp),%esi
  401172:	ff 76 10             	pushl  0x10(%esi)
  401175:	e8 cc 17 00 00       	call   0x402946
  40117a:	85 c0                	test   %eax,%eax
  40117c:	59                   	pop    %ecx
  40117d:	74 77                	je     0x4011f6
  40117f:	81 fe 70 70 40 00    	cmp    $0x407070,%esi
  401185:	75 04                	jne    0x40118b
  401187:	33 c0                	xor    %eax,%eax
  401189:	eb 0b                	jmp    0x401196
  40118b:	81 fe 90 70 40 00    	cmp    $0x407090,%esi
  401191:	75 63                	jne    0x4011f6
  401193:	6a 01                	push   $0x1
  401195:	58                   	pop    %eax
  401196:	ff 05 fc 98 40 00    	incl   0x4098fc
  40119c:	66 f7 46 0c 0c 01    	testw  $0x10c,0xc(%esi)
  4011a2:	75 52                	jne    0x4011f6
  4011a4:	83 3c 85 f4 98 40 00 	cmpl   $0x0,0x4098f4(,%eax,4)
  4011ab:	00 
  4011ac:	53                   	push   %ebx
  4011ad:	57                   	push   %edi
  4011ae:	8d 3c 85 f4 98 40 00 	lea    0x4098f4(,%eax,4),%edi
  4011b5:	bb 00 10 00 00       	mov    $0x1000,%ebx
  4011ba:	75 20                	jne    0x4011dc
  4011bc:	53                   	push   %ebx
  4011bd:	e8 d2 16 00 00       	call   0x402894
  4011c2:	85 c0                	test   %eax,%eax
  4011c4:	59                   	pop    %ecx
  4011c5:	89 07                	mov    %eax,(%edi)
  4011c7:	75 13                	jne    0x4011dc
  4011c9:	8d 46 14             	lea    0x14(%esi),%eax
  4011cc:	6a 02                	push   $0x2
  4011ce:	89 46 08             	mov    %eax,0x8(%esi)
  4011d1:	89 06                	mov    %eax,(%esi)
  4011d3:	58                   	pop    %eax
  4011d4:	89 46 18             	mov    %eax,0x18(%esi)
  4011d7:	89 46 04             	mov    %eax,0x4(%esi)
  4011da:	eb 0d                	jmp    0x4011e9
  4011dc:	8b 3f                	mov    (%edi),%edi
  4011de:	89 5e 18             	mov    %ebx,0x18(%esi)
  4011e1:	89 7e 08             	mov    %edi,0x8(%esi)
  4011e4:	89 3e                	mov    %edi,(%esi)
  4011e6:	89 5e 04             	mov    %ebx,0x4(%esi)
  4011e9:	66 81 4e 0c 02 11    	orw    $0x1102,0xc(%esi)
  4011ef:	6a 01                	push   $0x1
  4011f1:	58                   	pop    %eax
  4011f2:	5f                   	pop    %edi
  4011f3:	5b                   	pop    %ebx
  4011f4:	5e                   	pop    %esi
  4011f5:	c3                   	ret    
  4011f6:	33 c0                	xor    %eax,%eax
  4011f8:	5e                   	pop    %esi
  4011f9:	c3                   	ret    
  4011fa:	83 7c 24 04 00       	cmpl   $0x0,0x4(%esp)
  4011ff:	56                   	push   %esi
  401200:	74 22                	je     0x401224
  401202:	8b 74 24 0c          	mov    0xc(%esp),%esi
  401206:	f6 46 0d 10          	testb  $0x10,0xd(%esi)
  40120a:	74 29                	je     0x401235
  40120c:	56                   	push   %esi
  40120d:	e8 95 17 00 00       	call   0x4029a7
  401212:	80 66 0d ee          	andb   $0xee,0xd(%esi)
  401216:	83 66 18 00          	andl   $0x0,0x18(%esi)
  40121a:	83 26 00             	andl   $0x0,(%esi)
  40121d:	83 66 08 00          	andl   $0x0,0x8(%esi)
  401221:	59                   	pop    %ecx
  401222:	5e                   	pop    %esi
  401223:	c3                   	ret    
  401224:	8b 44 24 0c          	mov    0xc(%esp),%eax
  401228:	f6 40 0d 10          	testb  $0x10,0xd(%eax)
  40122c:	74 07                	je     0x401235
  40122e:	50                   	push   %eax
  40122f:	e8 73 17 00 00       	call   0x4029a7
  401234:	59                   	pop    %ecx
  401235:	5e                   	pop    %esi
  401236:	c3                   	ret    
  401237:	55                   	push   %ebp
  401238:	8b ec                	mov    %esp,%ebp
  40123a:	81 ec 48 02 00 00    	sub    $0x248,%esp
  401240:	53                   	push   %ebx
  401241:	56                   	push   %esi
  401242:	57                   	push   %edi
  401243:	8b 7d 0c             	mov    0xc(%ebp),%edi
  401246:	33 f6                	xor    %esi,%esi
  401248:	8a 1f                	mov    (%edi),%bl
  40124a:	47                   	inc    %edi
  40124b:	84 db                	test   %bl,%bl
  40124d:	89 75 f4             	mov    %esi,-0xc(%ebp)
  401250:	89 75 ec             	mov    %esi,-0x14(%ebp)
  401253:	89 7d 0c             	mov    %edi,0xc(%ebp)
  401256:	0f 84 f4 06 00 00    	je     0x401950
  40125c:	8b 4d f0             	mov    -0x10(%ebp),%ecx
  40125f:	33 d2                	xor    %edx,%edx
  401261:	eb 08                	jmp    0x40126b
  401263:	8b 4d f0             	mov    -0x10(%ebp),%ecx
  401266:	8b 75 d0             	mov    -0x30(%ebp),%esi
  401269:	33 d2                	xor    %edx,%edx
  40126b:	39 55 ec             	cmp    %edx,-0x14(%ebp)
  40126e:	0f 8c dc 06 00 00    	jl     0x401950
  401274:	80 fb 20             	cmp    $0x20,%bl
  401277:	7c 13                	jl     0x40128c
  401279:	80 fb 78             	cmp    $0x78,%bl
  40127c:	7f 0e                	jg     0x40128c
  40127e:	0f be c3             	movsbl %bl,%eax
  401281:	8a 80 9c 60 40 00    	mov    0x40609c(%eax),%al
  401287:	83 e0 0f             	and    $0xf,%eax
  40128a:	eb 02                	jmp    0x40128e
  40128c:	33 c0                	xor    %eax,%eax
  40128e:	0f be 84 c6 bc 60 40 	movsbl 0x4060bc(%esi,%eax,8),%eax
  401295:	00 
  401296:	c1 f8 04             	sar    $0x4,%eax
  401299:	83 f8 07             	cmp    $0x7,%eax
  40129c:	89 45 d0             	mov    %eax,-0x30(%ebp)
  40129f:	0f 87 9a 06 00 00    	ja     0x40193f
  4012a5:	ff 24 85 58 19 40 00 	jmp    *0x401958(,%eax,4)
  4012ac:	83 4d f0 ff          	orl    $0xffffffff,-0x10(%ebp)
  4012b0:	89 55 cc             	mov    %edx,-0x34(%ebp)
  4012b3:	89 55 d8             	mov    %edx,-0x28(%ebp)
  4012b6:	89 55 e0             	mov    %edx,-0x20(%ebp)
  4012b9:	89 55 e4             	mov    %edx,-0x1c(%ebp)
  4012bc:	89 55 fc             	mov    %edx,-0x4(%ebp)
  4012bf:	89 55 dc             	mov    %edx,-0x24(%ebp)
  4012c2:	e9 78 06 00 00       	jmp    0x40193f
  4012c7:	0f be c3             	movsbl %bl,%eax
  4012ca:	83 e8 20             	sub    $0x20,%eax
  4012cd:	74 3b                	je     0x40130a
  4012cf:	83 e8 03             	sub    $0x3,%eax
  4012d2:	74 2d                	je     0x401301
  4012d4:	83 e8 08             	sub    $0x8,%eax
  4012d7:	74 1f                	je     0x4012f8
  4012d9:	48                   	dec    %eax
  4012da:	48                   	dec    %eax
  4012db:	74 12                	je     0x4012ef
  4012dd:	83 e8 03             	sub    $0x3,%eax
  4012e0:	0f 85 59 06 00 00    	jne    0x40193f
  4012e6:	83 4d fc 08          	orl    $0x8,-0x4(%ebp)
  4012ea:	e9 50 06 00 00       	jmp    0x40193f
  4012ef:	83 4d fc 04          	orl    $0x4,-0x4(%ebp)
  4012f3:	e9 47 06 00 00       	jmp    0x40193f
  4012f8:	83 4d fc 01          	orl    $0x1,-0x4(%ebp)
  4012fc:	e9 3e 06 00 00       	jmp    0x40193f
  401301:	80 4d fc 80          	orb    $0x80,-0x4(%ebp)
  401305:	e9 35 06 00 00       	jmp    0x40193f
  40130a:	83 4d fc 02          	orl    $0x2,-0x4(%ebp)
  40130e:	e9 2c 06 00 00       	jmp    0x40193f
  401313:	80 fb 2a             	cmp    $0x2a,%bl
  401316:	75 23                	jne    0x40133b
  401318:	8d 45 10             	lea    0x10(%ebp),%eax
  40131b:	50                   	push   %eax
  40131c:	e8 f5 06 00 00       	call   0x401a16
  401321:	85 c0                	test   %eax,%eax
  401323:	59                   	pop    %ecx
  401324:	89 45 e0             	mov    %eax,-0x20(%ebp)
  401327:	0f 8d 12 06 00 00    	jge    0x40193f
  40132d:	83 4d fc 04          	orl    $0x4,-0x4(%ebp)
  401331:	f7 d8                	neg    %eax
  401333:	89 45 e0             	mov    %eax,-0x20(%ebp)
  401336:	e9 04 06 00 00       	jmp    0x40193f
  40133b:	8b 45 e0             	mov    -0x20(%ebp),%eax
  40133e:	0f be cb             	movsbl %bl,%ecx
  401341:	8d 04 80             	lea    (%eax,%eax,4),%eax
  401344:	8d 44 41 d0          	lea    -0x30(%ecx,%eax,2),%eax
  401348:	eb e9                	jmp    0x401333
  40134a:	89 55 f0             	mov    %edx,-0x10(%ebp)
  40134d:	e9 ed 05 00 00       	jmp    0x40193f
  401352:	80 fb 2a             	cmp    $0x2a,%bl
  401355:	75 1e                	jne    0x401375
  401357:	8d 45 10             	lea    0x10(%ebp),%eax
  40135a:	50                   	push   %eax
  40135b:	e8 b6 06 00 00       	call   0x401a16
  401360:	85 c0                	test   %eax,%eax
  401362:	59                   	pop    %ecx
  401363:	89 45 f0             	mov    %eax,-0x10(%ebp)
  401366:	0f 8d d3 05 00 00    	jge    0x40193f
  40136c:	83 4d f0 ff          	orl    $0xffffffff,-0x10(%ebp)
  401370:	e9 ca 05 00 00       	jmp    0x40193f
  401375:	8d 04 89             	lea    (%ecx,%ecx,4),%eax
  401378:	0f be cb             	movsbl %bl,%ecx
  40137b:	8d 44 41 d0          	lea    -0x30(%ecx,%eax,2),%eax
  40137f:	89 45 f0             	mov    %eax,-0x10(%ebp)
  401382:	e9 b8 05 00 00       	jmp    0x40193f
  401387:	80 fb 49             	cmp    $0x49,%bl
  40138a:	74 2e                	je     0x4013ba
  40138c:	80 fb 68             	cmp    $0x68,%bl
  40138f:	74 20                	je     0x4013b1
  401391:	80 fb 6c             	cmp    $0x6c,%bl
  401394:	74 12                	je     0x4013a8
  401396:	80 fb 77             	cmp    $0x77,%bl
  401399:	0f 85 a0 05 00 00    	jne    0x40193f
  40139f:	80 4d fd 08          	orb    $0x8,-0x3(%ebp)
  4013a3:	e9 97 05 00 00       	jmp    0x40193f
  4013a8:	83 4d fc 10          	orl    $0x10,-0x4(%ebp)
  4013ac:	e9 8e 05 00 00       	jmp    0x40193f
  4013b1:	83 4d fc 20          	orl    $0x20,-0x4(%ebp)
  4013b5:	e9 85 05 00 00       	jmp    0x40193f
  4013ba:	80 3f 36             	cmpb   $0x36,(%edi)
  4013bd:	75 14                	jne    0x4013d3
  4013bf:	80 7f 01 34          	cmpb   $0x34,0x1(%edi)
  4013c3:	75 0e                	jne    0x4013d3
  4013c5:	47                   	inc    %edi
  4013c6:	47                   	inc    %edi
  4013c7:	80 4d fd 80          	orb    $0x80,-0x3(%ebp)
  4013cb:	89 7d 0c             	mov    %edi,0xc(%ebp)
  4013ce:	e9 6c 05 00 00       	jmp    0x40193f
  4013d3:	89 55 d0             	mov    %edx,-0x30(%ebp)
  4013d6:	8b 0d 28 74 40 00    	mov    0x407428,%ecx
  4013dc:	89 55 dc             	mov    %edx,-0x24(%ebp)
  4013df:	0f b6 c3             	movzbl %bl,%eax
  4013e2:	f6 44 41 01 80       	testb  $0x80,0x1(%ecx,%eax,2)
  4013e7:	74 19                	je     0x401402
  4013e9:	8d 45 ec             	lea    -0x14(%ebp),%eax
  4013ec:	50                   	push   %eax
  4013ed:	ff 75 08             	pushl  0x8(%ebp)
  4013f0:	0f be c3             	movsbl %bl,%eax
  4013f3:	50                   	push   %eax
  4013f4:	e8 7f 05 00 00       	call   0x401978
  4013f9:	8a 1f                	mov    (%edi),%bl
  4013fb:	83 c4 0c             	add    $0xc,%esp
  4013fe:	47                   	inc    %edi
  4013ff:	89 7d 0c             	mov    %edi,0xc(%ebp)
  401402:	8d 45 ec             	lea    -0x14(%ebp),%eax
  401405:	50                   	push   %eax
  401406:	ff 75 08             	pushl  0x8(%ebp)
  401409:	0f be c3             	movsbl %bl,%eax
  40140c:	50                   	push   %eax
  40140d:	e8 66 05 00 00       	call   0x401978
  401412:	83 c4 0c             	add    $0xc,%esp
  401415:	e9 25 05 00 00       	jmp    0x40193f
  40141a:	0f be c3             	movsbl %bl,%eax
  40141d:	83 f8 67             	cmp    $0x67,%eax
  401420:	0f 8f 1c 02 00 00    	jg     0x401642
  401426:	83 f8 65             	cmp    $0x65,%eax
  401429:	0f 8d 96 00 00 00    	jge    0x4014c5
  40142f:	83 f8 58             	cmp    $0x58,%eax
  401432:	0f 8f eb 00 00 00    	jg     0x401523
  401438:	0f 84 78 02 00 00    	je     0x4016b6
  40143e:	83 e8 43             	sub    $0x43,%eax
  401441:	0f 84 9f 00 00 00    	je     0x4014e6
  401447:	48                   	dec    %eax
  401448:	48                   	dec    %eax
  401449:	74 70                	je     0x4014bb
  40144b:	48                   	dec    %eax
  40144c:	48                   	dec    %eax
  40144d:	74 6c                	je     0x4014bb
  40144f:	83 e8 0c             	sub    $0xc,%eax
  401452:	0f 85 e9 03 00 00    	jne    0x401841
  401458:	66 f7 45 fc 30 08    	testw  $0x830,-0x4(%ebp)
  40145e:	75 04                	jne    0x401464
  401460:	80 4d fd 08          	orb    $0x8,-0x3(%ebp)
  401464:	8b 75 f0             	mov    -0x10(%ebp),%esi
  401467:	83 fe ff             	cmp    $0xffffffff,%esi
  40146a:	75 05                	jne    0x401471
  40146c:	be ff ff ff 7f       	mov    $0x7fffffff,%esi
  401471:	8d 45 10             	lea    0x10(%ebp),%eax
  401474:	50                   	push   %eax
  401475:	e8 9c 05 00 00       	call   0x401a16
  40147a:	66 f7 45 fc 10 08    	testw  $0x810,-0x4(%ebp)
  401480:	59                   	pop    %ecx
  401481:	8b c8                	mov    %eax,%ecx
  401483:	89 4d f8             	mov    %ecx,-0x8(%ebp)
  401486:	0f 84 fe 01 00 00    	je     0x40168a
  40148c:	85 c9                	test   %ecx,%ecx
  40148e:	75 09                	jne    0x401499
  401490:	8b 0d 4c 70 40 00    	mov    0x40704c,%ecx
  401496:	89 4d f8             	mov    %ecx,-0x8(%ebp)
  401499:	c7 45 dc 01 00 00 00 	movl   $0x1,-0x24(%ebp)
  4014a0:	8b c1                	mov    %ecx,%eax
  4014a2:	8b d6                	mov    %esi,%edx
  4014a4:	4e                   	dec    %esi
  4014a5:	85 d2                	test   %edx,%edx
  4014a7:	0f 84 d4 01 00 00    	je     0x401681
  4014ad:	66 83 38 00          	cmpw   $0x0,(%eax)
  4014b1:	0f 84 ca 01 00 00    	je     0x401681
  4014b7:	40                   	inc    %eax
  4014b8:	40                   	inc    %eax
  4014b9:	eb e7                	jmp    0x4014a2
  4014bb:	c7 45 cc 01 00 00 00 	movl   $0x1,-0x34(%ebp)
  4014c2:	80 c3 20             	add    $0x20,%bl
  4014c5:	83 4d fc 40          	orl    $0x40,-0x4(%ebp)
  4014c9:	8d bd b8 fd ff ff    	lea    -0x248(%ebp),%edi
  4014cf:	3b ca                	cmp    %edx,%ecx
  4014d1:	89 7d f8             	mov    %edi,-0x8(%ebp)
  4014d4:	0f 8d cf 00 00 00    	jge    0x4015a9
  4014da:	c7 45 f0 06 00 00 00 	movl   $0x6,-0x10(%ebp)
  4014e1:	e9 d1 00 00 00       	jmp    0x4015b7
  4014e6:	66 f7 45 fc 30 08    	testw  $0x830,-0x4(%ebp)
  4014ec:	75 04                	jne    0x4014f2
  4014ee:	80 4d fd 08          	orb    $0x8,-0x3(%ebp)
  4014f2:	66 f7 45 fc 10 08    	testw  $0x810,-0x4(%ebp)
  4014f8:	8d 45 10             	lea    0x10(%ebp),%eax
  4014fb:	50                   	push   %eax
  4014fc:	74 3b                	je     0x401539
  4014fe:	e8 30 05 00 00       	call   0x401a33
  401503:	50                   	push   %eax
  401504:	8d 85 b8 fd ff ff    	lea    -0x248(%ebp),%eax
  40150a:	50                   	push   %eax
  40150b:	e8 eb 15 00 00       	call   0x402afb
  401510:	83 c4 0c             	add    $0xc,%esp
  401513:	89 45 f4             	mov    %eax,-0xc(%ebp)
  401516:	85 c0                	test   %eax,%eax
  401518:	7d 32                	jge    0x40154c
  40151a:	c7 45 d8 01 00 00 00 	movl   $0x1,-0x28(%ebp)
  401521:	eb 29                	jmp    0x40154c
  401523:	83 e8 5a             	sub    $0x5a,%eax
  401526:	74 32                	je     0x40155a
  401528:	83 e8 09             	sub    $0x9,%eax
  40152b:	74 c5                	je     0x4014f2
  40152d:	48                   	dec    %eax
  40152e:	0f 84 e8 01 00 00    	je     0x40171c
  401534:	e9 08 03 00 00       	jmp    0x401841
  401539:	e8 d8 04 00 00       	call   0x401a16
  40153e:	59                   	pop    %ecx
  40153f:	88 85 b8 fd ff ff    	mov    %al,-0x248(%ebp)
  401545:	c7 45 f4 01 00 00 00 	movl   $0x1,-0xc(%ebp)
  40154c:	8d 85 b8 fd ff ff    	lea    -0x248(%ebp),%eax
  401552:	89 45 f8             	mov    %eax,-0x8(%ebp)
  401555:	e9 e7 02 00 00       	jmp    0x401841
  40155a:	8d 45 10             	lea    0x10(%ebp),%eax
  40155d:	50                   	push   %eax
  40155e:	e8 b3 04 00 00       	call   0x401a16
  401563:	85 c0                	test   %eax,%eax
  401565:	59                   	pop    %ecx
  401566:	74 33                	je     0x40159b
  401568:	8b 48 04             	mov    0x4(%eax),%ecx
  40156b:	85 c9                	test   %ecx,%ecx
  40156d:	74 2c                	je     0x40159b
  40156f:	f6 45 fd 08          	testb  $0x8,-0x3(%ebp)
  401573:	74 17                	je     0x40158c
  401575:	0f bf 00             	movswl (%eax),%eax
  401578:	d1 e8                	shr    %eax
  40157a:	89 4d f8             	mov    %ecx,-0x8(%ebp)
  40157d:	89 45 f4             	mov    %eax,-0xc(%ebp)
  401580:	c7 45 dc 01 00 00 00 	movl   $0x1,-0x24(%ebp)
  401587:	e9 b5 02 00 00       	jmp    0x401841
  40158c:	83 65 dc 00          	andl   $0x0,-0x24(%ebp)
  401590:	89 4d f8             	mov    %ecx,-0x8(%ebp)
  401593:	0f bf 00             	movswl (%eax),%eax
  401596:	e9 a3 02 00 00       	jmp    0x40183e
  40159b:	a1 48 70 40 00       	mov    0x407048,%eax
  4015a0:	89 45 f8             	mov    %eax,-0x8(%ebp)
  4015a3:	50                   	push   %eax
  4015a4:	e9 8e 00 00 00       	jmp    0x401637
  4015a9:	75 0c                	jne    0x4015b7
  4015ab:	80 fb 67             	cmp    $0x67,%bl
  4015ae:	75 07                	jne    0x4015b7
  4015b0:	c7 45 f0 01 00 00 00 	movl   $0x1,-0x10(%ebp)
  4015b7:	8b 45 10             	mov    0x10(%ebp),%eax
  4015ba:	ff 75 cc             	pushl  -0x34(%ebp)
  4015bd:	83 c0 08             	add    $0x8,%eax
  4015c0:	89 45 10             	mov    %eax,0x10(%ebp)
  4015c3:	ff 75 f0             	pushl  -0x10(%ebp)
  4015c6:	8b 48 f8             	mov    -0x8(%eax),%ecx
  4015c9:	89 4d b8             	mov    %ecx,-0x48(%ebp)
  4015cc:	8b 40 fc             	mov    -0x4(%eax),%eax
  4015cf:	89 45 bc             	mov    %eax,-0x44(%ebp)
  4015d2:	0f be c3             	movsbl %bl,%eax
  4015d5:	50                   	push   %eax
  4015d6:	8d 85 b8 fd ff ff    	lea    -0x248(%ebp),%eax
  4015dc:	50                   	push   %eax
  4015dd:	8d 45 b8             	lea    -0x48(%ebp),%eax
  4015e0:	50                   	push   %eax
  4015e1:	ff 15 10 74 40 00    	call   *0x407410
  4015e7:	8b 75 fc             	mov    -0x4(%ebp),%esi
  4015ea:	83 c4 14             	add    $0x14,%esp
  4015ed:	81 e6 80 00 00 00    	and    $0x80,%esi
  4015f3:	74 14                	je     0x401609
  4015f5:	83 7d f0 00          	cmpl   $0x0,-0x10(%ebp)
  4015f9:	75 0e                	jne    0x401609
  4015fb:	8d 85 b8 fd ff ff    	lea    -0x248(%ebp),%eax
  401601:	50                   	push   %eax
  401602:	ff 15 1c 74 40 00    	call   *0x40741c
  401608:	59                   	pop    %ecx
  401609:	80 fb 67             	cmp    $0x67,%bl
  40160c:	75 12                	jne    0x401620
  40160e:	85 f6                	test   %esi,%esi
  401610:	75 0e                	jne    0x401620
  401612:	8d 85 b8 fd ff ff    	lea    -0x248(%ebp),%eax
  401618:	50                   	push   %eax
  401619:	ff 15 14 74 40 00    	call   *0x407414
  40161f:	59                   	pop    %ecx
  401620:	80 bd b8 fd ff ff 2d 	cmpb   $0x2d,-0x248(%ebp)
  401627:	75 0d                	jne    0x401636
  401629:	80 4d fd 01          	orb    $0x1,-0x3(%ebp)
  40162d:	8d bd b9 fd ff ff    	lea    -0x247(%ebp),%edi
  401633:	89 7d f8             	mov    %edi,-0x8(%ebp)
  401636:	57                   	push   %edi
  401637:	e8 44 14 00 00       	call   0x402a80
  40163c:	59                   	pop    %ecx
  40163d:	e9 fc 01 00 00       	jmp    0x40183e
  401642:	83 e8 69             	sub    $0x69,%eax
  401645:	0f 84 d1 00 00 00    	je     0x40171c
  40164b:	83 e8 05             	sub    $0x5,%eax
  40164e:	0f 84 9e 00 00 00    	je     0x4016f2
  401654:	48                   	dec    %eax
  401655:	0f 84 84 00 00 00    	je     0x4016df
  40165b:	48                   	dec    %eax
  40165c:	74 51                	je     0x4016af
  40165e:	83 e8 03             	sub    $0x3,%eax
  401661:	0f 84 fd fd ff ff    	je     0x401464
  401667:	48                   	dec    %eax
  401668:	48                   	dec    %eax
  401669:	0f 84 b1 00 00 00    	je     0x401720
  40166f:	83 e8 03             	sub    $0x3,%eax
  401672:	0f 85 c9 01 00 00    	jne    0x401841
  401678:	c7 45 d4 27 00 00 00 	movl   $0x27,-0x2c(%ebp)
  40167f:	eb 3c                	jmp    0x4016bd
  401681:	2b c1                	sub    %ecx,%eax
  401683:	d1 f8                	sar    %eax
  401685:	e9 b4 01 00 00       	jmp    0x40183e
  40168a:	85 c9                	test   %ecx,%ecx
  40168c:	75 09                	jne    0x401697
  40168e:	8b 0d 48 70 40 00    	mov    0x407048,%ecx
  401694:	89 4d f8             	mov    %ecx,-0x8(%ebp)
  401697:	8b c1                	mov    %ecx,%eax
  401699:	8b d6                	mov    %esi,%edx
  40169b:	4e                   	dec    %esi
  40169c:	85 d2                	test   %edx,%edx
  40169e:	74 08                	je     0x4016a8
  4016a0:	80 38 00             	cmpb   $0x0,(%eax)
  4016a3:	74 03                	je     0x4016a8
  4016a5:	40                   	inc    %eax
  4016a6:	eb f1                	jmp    0x401699
  4016a8:	2b c1                	sub    %ecx,%eax
  4016aa:	e9 8f 01 00 00       	jmp    0x40183e
  4016af:	c7 45 f0 08 00 00 00 	movl   $0x8,-0x10(%ebp)
  4016b6:	c7 45 d4 07 00 00 00 	movl   $0x7,-0x2c(%ebp)
  4016bd:	f6 45 fc 80          	testb  $0x80,-0x4(%ebp)
  4016c1:	c7 45 f4 10 00 00 00 	movl   $0x10,-0xc(%ebp)
  4016c8:	74 5d                	je     0x401727
  4016ca:	8a 45 d4             	mov    -0x2c(%ebp),%al
  4016cd:	c6 45 ea 30          	movb   $0x30,-0x16(%ebp)
  4016d1:	04 51                	add    $0x51,%al
  4016d3:	c7 45 e4 02 00 00 00 	movl   $0x2,-0x1c(%ebp)
  4016da:	88 45 eb             	mov    %al,-0x15(%ebp)
  4016dd:	eb 48                	jmp    0x401727
  4016df:	f6 45 fc 80          	testb  $0x80,-0x4(%ebp)
  4016e3:	c7 45 f4 08 00 00 00 	movl   $0x8,-0xc(%ebp)
  4016ea:	74 3b                	je     0x401727
  4016ec:	80 4d fd 02          	orb    $0x2,-0x3(%ebp)
  4016f0:	eb 35                	jmp    0x401727
  4016f2:	8d 45 10             	lea    0x10(%ebp),%eax
  4016f5:	50                   	push   %eax
  4016f6:	e8 1b 03 00 00       	call   0x401a16
  4016fb:	f6 45 fc 20          	testb  $0x20,-0x4(%ebp)
  4016ff:	59                   	pop    %ecx
  401700:	74 09                	je     0x40170b
  401702:	66 8b 4d ec          	mov    -0x14(%ebp),%cx
  401706:	66 89 08             	mov    %cx,(%eax)
  401709:	eb 05                	jmp    0x401710
  40170b:	8b 4d ec             	mov    -0x14(%ebp),%ecx
  40170e:	89 08                	mov    %ecx,(%eax)
  401710:	c7 45 d8 01 00 00 00 	movl   $0x1,-0x28(%ebp)
  401717:	e9 23 02 00 00       	jmp    0x40193f
  40171c:	83 4d fc 40          	orl    $0x40,-0x4(%ebp)
  401720:	c7 45 f4 0a 00 00 00 	movl   $0xa,-0xc(%ebp)
  401727:	f6 45 fd 80          	testb  $0x80,-0x3(%ebp)
  40172b:	74 0c                	je     0x401739
  40172d:	8d 45 10             	lea    0x10(%ebp),%eax
  401730:	50                   	push   %eax
  401731:	e8 ed 02 00 00       	call   0x401a23
  401736:	59                   	pop    %ecx
  401737:	eb 41                	jmp    0x40177a
  401739:	f6 45 fc 20          	testb  $0x20,-0x4(%ebp)
  40173d:	74 21                	je     0x401760
  40173f:	f6 45 fc 40          	testb  $0x40,-0x4(%ebp)
  401743:	8d 45 10             	lea    0x10(%ebp),%eax
  401746:	50                   	push   %eax
  401747:	74 0c                	je     0x401755
  401749:	e8 c8 02 00 00       	call   0x401a16
  40174e:	59                   	pop    %ecx
  40174f:	0f bf c0             	movswl %ax,%eax
  401752:	99                   	cltd   
  401753:	eb 25                	jmp    0x40177a
  401755:	e8 bc 02 00 00       	call   0x401a16
  40175a:	59                   	pop    %ecx
  40175b:	0f b7 c0             	movzwl %ax,%eax
  40175e:	eb f2                	jmp    0x401752
  401760:	f6 45 fc 40          	testb  $0x40,-0x4(%ebp)
  401764:	8d 45 10             	lea    0x10(%ebp),%eax
  401767:	50                   	push   %eax
  401768:	74 08                	je     0x401772
  40176a:	e8 a7 02 00 00       	call   0x401a16
  40176f:	59                   	pop    %ecx
  401770:	eb e0                	jmp    0x401752
  401772:	e8 9f 02 00 00       	call   0x401a16
  401777:	59                   	pop    %ecx
  401778:	33 d2                	xor    %edx,%edx
  40177a:	f6 45 fc 40          	testb  $0x40,-0x4(%ebp)
  40177e:	74 1b                	je     0x40179b
  401780:	85 d2                	test   %edx,%edx
  401782:	7f 17                	jg     0x40179b
  401784:	7c 04                	jl     0x40178a
  401786:	85 c0                	test   %eax,%eax
  401788:	73 11                	jae    0x40179b
  40178a:	f7 d8                	neg    %eax
  40178c:	83 d2 00             	adc    $0x0,%edx
  40178f:	8b f0                	mov    %eax,%esi
  401791:	f7 da                	neg    %edx
  401793:	80 4d fd 01          	orb    $0x1,-0x3(%ebp)
  401797:	8b fa                	mov    %edx,%edi
  401799:	eb 04                	jmp    0x40179f
  40179b:	8b f0                	mov    %eax,%esi
  40179d:	8b fa                	mov    %edx,%edi
  40179f:	f6 45 fd 80          	testb  $0x80,-0x3(%ebp)
  4017a3:	75 03                	jne    0x4017a8
  4017a5:	83 e7 00             	and    $0x0,%edi
  4017a8:	83 7d f0 00          	cmpl   $0x0,-0x10(%ebp)
  4017ac:	7d 09                	jge    0x4017b7
  4017ae:	c7 45 f0 01 00 00 00 	movl   $0x1,-0x10(%ebp)
  4017b5:	eb 04                	jmp    0x4017bb
  4017b7:	83 65 fc f7          	andl   $0xfffffff7,-0x4(%ebp)
  4017bb:	8b c6                	mov    %esi,%eax
  4017bd:	0b c7                	or     %edi,%eax
  4017bf:	75 04                	jne    0x4017c5
  4017c1:	83 65 e4 00          	andl   $0x0,-0x1c(%ebp)
  4017c5:	8d 45 b7             	lea    -0x49(%ebp),%eax
  4017c8:	89 45 f8             	mov    %eax,-0x8(%ebp)
  4017cb:	8b 45 f0             	mov    -0x10(%ebp),%eax
  4017ce:	ff 4d f0             	decl   -0x10(%ebp)
  4017d1:	85 c0                	test   %eax,%eax
  4017d3:	7f 06                	jg     0x4017db
  4017d5:	8b c6                	mov    %esi,%eax
  4017d7:	0b c7                	or     %edi,%eax
  4017d9:	74 3b                	je     0x401816
  4017db:	8b 45 f4             	mov    -0xc(%ebp),%eax
  4017de:	99                   	cltd   
  4017df:	52                   	push   %edx
  4017e0:	50                   	push   %eax
  4017e1:	57                   	push   %edi
  4017e2:	56                   	push   %esi
  4017e3:	89 45 c0             	mov    %eax,-0x40(%ebp)
  4017e6:	89 55 c4             	mov    %edx,-0x3c(%ebp)
  4017e9:	e8 f2 13 00 00       	call   0x402be0
  4017ee:	ff 75 c4             	pushl  -0x3c(%ebp)
  4017f1:	8b d8                	mov    %eax,%ebx
  4017f3:	83 c3 30             	add    $0x30,%ebx
  4017f6:	ff 75 c0             	pushl  -0x40(%ebp)
  4017f9:	57                   	push   %edi
  4017fa:	56                   	push   %esi
  4017fb:	e8 70 13 00 00       	call   0x402b70
  401800:	83 fb 39             	cmp    $0x39,%ebx
  401803:	8b f0                	mov    %eax,%esi
  401805:	8b fa                	mov    %edx,%edi
  401807:	7e 03                	jle    0x40180c
  401809:	03 5d d4             	add    -0x2c(%ebp),%ebx
  40180c:	8b 45 f8             	mov    -0x8(%ebp),%eax
  40180f:	ff 4d f8             	decl   -0x8(%ebp)
  401812:	88 18                	mov    %bl,(%eax)
  401814:	eb b5                	jmp    0x4017cb
  401816:	8d 45 b7             	lea    -0x49(%ebp),%eax
  401819:	2b 45 f8             	sub    -0x8(%ebp),%eax
  40181c:	ff 45 f8             	incl   -0x8(%ebp)
  40181f:	f6 45 fd 02          	testb  $0x2,-0x3(%ebp)
  401823:	89 45 f4             	mov    %eax,-0xc(%ebp)
  401826:	74 19                	je     0x401841
  401828:	8b 4d f8             	mov    -0x8(%ebp),%ecx
  40182b:	80 39 30             	cmpb   $0x30,(%ecx)
  40182e:	75 04                	jne    0x401834
  401830:	85 c0                	test   %eax,%eax
  401832:	75 0d                	jne    0x401841
  401834:	ff 4d f8             	decl   -0x8(%ebp)
  401837:	40                   	inc    %eax
  401838:	8b 4d f8             	mov    -0x8(%ebp),%ecx
  40183b:	c6 01 30             	movb   $0x30,(%ecx)
  40183e:	89 45 f4             	mov    %eax,-0xc(%ebp)
  401841:	83 7d d8 00          	cmpl   $0x0,-0x28(%ebp)
  401845:	0f 85 f4 00 00 00    	jne    0x40193f
  40184b:	8b 5d fc             	mov    -0x4(%ebp),%ebx
  40184e:	f6 c3 40             	test   $0x40,%bl
  401851:	74 26                	je     0x401879
  401853:	f6 c7 01             	test   $0x1,%bh
  401856:	74 06                	je     0x40185e
  401858:	c6 45 ea 2d          	movb   $0x2d,-0x16(%ebp)
  40185c:	eb 14                	jmp    0x401872
  40185e:	f6 c3 01             	test   $0x1,%bl
  401861:	74 06                	je     0x401869
  401863:	c6 45 ea 2b          	movb   $0x2b,-0x16(%ebp)
  401867:	eb 09                	jmp    0x401872
  401869:	f6 c3 02             	test   $0x2,%bl
  40186c:	74 0b                	je     0x401879
  40186e:	c6 45 ea 20          	movb   $0x20,-0x16(%ebp)
  401872:	c7 45 e4 01 00 00 00 	movl   $0x1,-0x1c(%ebp)
  401879:	8b 75 e0             	mov    -0x20(%ebp),%esi
  40187c:	2b 75 e4             	sub    -0x1c(%ebp),%esi
  40187f:	2b 75 f4             	sub    -0xc(%ebp),%esi
  401882:	f6 c3 0c             	test   $0xc,%bl
  401885:	75 12                	jne    0x401899
  401887:	8d 45 ec             	lea    -0x14(%ebp),%eax
  40188a:	50                   	push   %eax
  40188b:	ff 75 08             	pushl  0x8(%ebp)
  40188e:	56                   	push   %esi
  40188f:	6a 20                	push   $0x20
  401891:	e8 17 01 00 00       	call   0x4019ad
  401896:	83 c4 10             	add    $0x10,%esp
  401899:	8d 45 ec             	lea    -0x14(%ebp),%eax
  40189c:	50                   	push   %eax
  40189d:	8d 45 ea             	lea    -0x16(%ebp),%eax
  4018a0:	ff 75 08             	pushl  0x8(%ebp)
  4018a3:	ff 75 e4             	pushl  -0x1c(%ebp)
  4018a6:	50                   	push   %eax
  4018a7:	e8 32 01 00 00       	call   0x4019de
  4018ac:	83 c4 10             	add    $0x10,%esp
  4018af:	f6 c3 08             	test   $0x8,%bl
  4018b2:	74 17                	je     0x4018cb
  4018b4:	f6 c3 04             	test   $0x4,%bl
  4018b7:	75 12                	jne    0x4018cb
  4018b9:	8d 45 ec             	lea    -0x14(%ebp),%eax
  4018bc:	50                   	push   %eax
  4018bd:	ff 75 08             	pushl  0x8(%ebp)
  4018c0:	56                   	push   %esi
  4018c1:	6a 30                	push   $0x30
  4018c3:	e8 e5 00 00 00       	call   0x4019ad
  4018c8:	83 c4 10             	add    $0x10,%esp
  4018cb:	83 7d dc 00          	cmpl   $0x0,-0x24(%ebp)
  4018cf:	74 41                	je     0x401912
  4018d1:	83 7d f4 00          	cmpl   $0x0,-0xc(%ebp)
  4018d5:	7e 3b                	jle    0x401912
  4018d7:	8b 45 f4             	mov    -0xc(%ebp),%eax
  4018da:	8b 5d f8             	mov    -0x8(%ebp),%ebx
  4018dd:	8d 78 ff             	lea    -0x1(%eax),%edi
  4018e0:	66 8b 03             	mov    (%ebx),%ax
  4018e3:	43                   	inc    %ebx
  4018e4:	50                   	push   %eax
  4018e5:	8d 45 c8             	lea    -0x38(%ebp),%eax
  4018e8:	50                   	push   %eax
  4018e9:	43                   	inc    %ebx
  4018ea:	e8 0c 12 00 00       	call   0x402afb
  4018ef:	59                   	pop    %ecx
  4018f0:	85 c0                	test   %eax,%eax
  4018f2:	59                   	pop    %ecx
  4018f3:	7e 32                	jle    0x401927
  4018f5:	8d 4d ec             	lea    -0x14(%ebp),%ecx
  4018f8:	51                   	push   %ecx
  4018f9:	ff 75 08             	pushl  0x8(%ebp)
  4018fc:	50                   	push   %eax
  4018fd:	8d 45 c8             	lea    -0x38(%ebp),%eax
  401900:	50                   	push   %eax
  401901:	e8 d8 00 00 00       	call   0x4019de
  401906:	83 c4 10             	add    $0x10,%esp
  401909:	8b c7                	mov    %edi,%eax
  40190b:	4f                   	dec    %edi
  40190c:	85 c0                	test   %eax,%eax
  40190e:	75 d0                	jne    0x4018e0
  401910:	eb 15                	jmp    0x401927
  401912:	8d 45 ec             	lea    -0x14(%ebp),%eax
  401915:	50                   	push   %eax
  401916:	ff 75 08             	pushl  0x8(%ebp)
  401919:	ff 75 f4             	pushl  -0xc(%ebp)
  40191c:	ff 75 f8             	pushl  -0x8(%ebp)
  40191f:	e8 ba 00 00 00       	call   0x4019de
  401924:	83 c4 10             	add    $0x10,%esp
  401927:	f6 45 fc 04          	testb  $0x4,-0x4(%ebp)
  40192b:	74 12                	je     0x40193f
  40192d:	8d 45 ec             	lea    -0x14(%ebp),%eax
  401930:	50                   	push   %eax
  401931:	ff 75 08             	pushl  0x8(%ebp)
  401934:	56                   	push   %esi
  401935:	6a 20                	push   $0x20
  401937:	e8 71 00 00 00       	call   0x4019ad
  40193c:	83 c4 10             	add    $0x10,%esp
  40193f:	8b 7d 0c             	mov    0xc(%ebp),%edi
  401942:	8a 1f                	mov    (%edi),%bl
  401944:	47                   	inc    %edi
  401945:	84 db                	test   %bl,%bl
  401947:	89 7d 0c             	mov    %edi,0xc(%ebp)
  40194a:	0f 85 13 f9 ff ff    	jne    0x401263
  401950:	8b 45 ec             	mov    -0x14(%ebp),%eax
  401953:	5f                   	pop    %edi
  401954:	5e                   	pop    %esi
  401955:	5b                   	pop    %ebx
  401956:	c9                   	leave  
  401957:	c3                   	ret    
  401958:	d6                   	(bad)  
  401959:	13 40 00             	adc    0x0(%eax),%eax
  40195c:	ac                   	lods   %ds:(%esi),%al
  40195d:	12 40 00             	adc    0x0(%eax),%al
  401960:	c7                   	(bad)  
  401961:	12 40 00             	adc    0x0(%eax),%al
  401964:	13 13                	adc    (%ebx),%edx
  401966:	40                   	inc    %eax
  401967:	00 4a 13             	add    %cl,0x13(%edx)
  40196a:	40                   	inc    %eax
  40196b:	00 52 13             	add    %dl,0x13(%edx)
  40196e:	40                   	inc    %eax
  40196f:	00 87 13 40 00 1a    	add    %al,0x1a004013(%edi)
  401975:	14 40                	adc    $0x40,%al
  401977:	00 55 8b             	add    %dl,-0x75(%ebp)
  40197a:	ec                   	in     (%dx),%al
  40197b:	8b 4d 0c             	mov    0xc(%ebp),%ecx
  40197e:	ff 49 04             	decl   0x4(%ecx)
  401981:	78 0e                	js     0x401991
  401983:	8b 11                	mov    (%ecx),%edx
  401985:	8a 45 08             	mov    0x8(%ebp),%al
  401988:	88 02                	mov    %al,(%edx)
  40198a:	ff 01                	incl   (%ecx)
  40198c:	0f b6 c0             	movzbl %al,%eax
  40198f:	eb 0b                	jmp    0x40199c
  401991:	51                   	push   %ecx
  401992:	ff 75 08             	pushl  0x8(%ebp)
  401995:	e8 bb 12 00 00       	call   0x402c55
  40199a:	59                   	pop    %ecx
  40199b:	59                   	pop    %ecx
  40199c:	83 f8 ff             	cmp    $0xffffffff,%eax
  40199f:	8b 45 10             	mov    0x10(%ebp),%eax
  4019a2:	75 05                	jne    0x4019a9
  4019a4:	83 08 ff             	orl    $0xffffffff,(%eax)
  4019a7:	5d                   	pop    %ebp
  4019a8:	c3                   	ret    
  4019a9:	ff 00                	incl   (%eax)
  4019ab:	5d                   	pop    %ebp
  4019ac:	c3                   	ret    
  4019ad:	56                   	push   %esi
  4019ae:	57                   	push   %edi
  4019af:	8b 7c 24 10          	mov    0x10(%esp),%edi
  4019b3:	8b c7                	mov    %edi,%eax
  4019b5:	4f                   	dec    %edi
  4019b6:	85 c0                	test   %eax,%eax
  4019b8:	7e 21                	jle    0x4019db
  4019ba:	8b 74 24 18          	mov    0x18(%esp),%esi
  4019be:	56                   	push   %esi
  4019bf:	ff 74 24 18          	pushl  0x18(%esp)
  4019c3:	ff 74 24 14          	pushl  0x14(%esp)
  4019c7:	e8 ac ff ff ff       	call   0x401978
  4019cc:	83 c4 0c             	add    $0xc,%esp
  4019cf:	83 3e ff             	cmpl   $0xffffffff,(%esi)
  4019d2:	74 07                	je     0x4019db
  4019d4:	8b c7                	mov    %edi,%eax
  4019d6:	4f                   	dec    %edi
  4019d7:	85 c0                	test   %eax,%eax
  4019d9:	7f e3                	jg     0x4019be
  4019db:	5f                   	pop    %edi
  4019dc:	5e                   	pop    %esi
  4019dd:	c3                   	ret    
  4019de:	53                   	push   %ebx
  4019df:	8b 5c 24 0c          	mov    0xc(%esp),%ebx
  4019e3:	8b c3                	mov    %ebx,%eax
  4019e5:	4b                   	dec    %ebx
  4019e6:	56                   	push   %esi
  4019e7:	57                   	push   %edi
  4019e8:	85 c0                	test   %eax,%eax
  4019ea:	7e 26                	jle    0x401a12
  4019ec:	8b 7c 24 1c          	mov    0x1c(%esp),%edi
  4019f0:	8b 74 24 10          	mov    0x10(%esp),%esi
  4019f4:	0f be 06             	movsbl (%esi),%eax
  4019f7:	57                   	push   %edi
  4019f8:	46                   	inc    %esi
  4019f9:	ff 74 24 1c          	pushl  0x1c(%esp)
  4019fd:	50                   	push   %eax
  4019fe:	e8 75 ff ff ff       	call   0x401978
  401a03:	83 c4 0c             	add    $0xc,%esp
  401a06:	83 3f ff             	cmpl   $0xffffffff,(%edi)
  401a09:	74 07                	je     0x401a12
  401a0b:	8b c3                	mov    %ebx,%eax
  401a0d:	4b                   	dec    %ebx
  401a0e:	85 c0                	test   %eax,%eax
  401a10:	7f e2                	jg     0x4019f4
  401a12:	5f                   	pop    %edi
  401a13:	5e                   	pop    %esi
  401a14:	5b                   	pop    %ebx
  401a15:	c3                   	ret    
  401a16:	8b 44 24 04          	mov    0x4(%esp),%eax
  401a1a:	83 00 04             	addl   $0x4,(%eax)
  401a1d:	8b 00                	mov    (%eax),%eax
  401a1f:	8b 40 fc             	mov    -0x4(%eax),%eax
  401a22:	c3                   	ret    
  401a23:	8b 44 24 04          	mov    0x4(%esp),%eax
  401a27:	83 00 08             	addl   $0x8,(%eax)
  401a2a:	8b 08                	mov    (%eax),%ecx
  401a2c:	8b 41 f8             	mov    -0x8(%ecx),%eax
  401a2f:	8b 51 fc             	mov    -0x4(%ecx),%edx
  401a32:	c3                   	ret    
  401a33:	8b 44 24 04          	mov    0x4(%esp),%eax
  401a37:	83 00 04             	addl   $0x4,(%eax)
  401a3a:	8b 00                	mov    (%eax),%eax
  401a3c:	66 8b 40 fc          	mov    -0x4(%eax),%ax
  401a40:	c3                   	ret    
  401a41:	a1 20 ae 40 00       	mov    0x40ae20,%eax
  401a46:	56                   	push   %esi
  401a47:	6a 14                	push   $0x14
  401a49:	85 c0                	test   %eax,%eax
  401a4b:	5e                   	pop    %esi
  401a4c:	75 07                	jne    0x401a55
  401a4e:	b8 00 02 00 00       	mov    $0x200,%eax
  401a53:	eb 06                	jmp    0x401a5b
  401a55:	3b c6                	cmp    %esi,%eax
  401a57:	7d 07                	jge    0x401a60
  401a59:	8b c6                	mov    %esi,%eax
  401a5b:	a3 20 ae 40 00       	mov    %eax,0x40ae20
  401a60:	6a 04                	push   $0x4
  401a62:	50                   	push   %eax
  401a63:	e8 02 13 00 00       	call   0x402d6a
  401a68:	59                   	pop    %ecx
  401a69:	a3 18 9e 40 00       	mov    %eax,0x409e18
  401a6e:	85 c0                	test   %eax,%eax
  401a70:	59                   	pop    %ecx
  401a71:	75 21                	jne    0x401a94
  401a73:	6a 04                	push   $0x4
  401a75:	56                   	push   %esi
  401a76:	89 35 20 ae 40 00    	mov    %esi,0x40ae20
  401a7c:	e8 e9 12 00 00       	call   0x402d6a
  401a81:	59                   	pop    %ecx
  401a82:	a3 18 9e 40 00       	mov    %eax,0x409e18
  401a87:	85 c0                	test   %eax,%eax
  401a89:	59                   	pop    %ecx
  401a8a:	75 08                	jne    0x401a94
  401a8c:	6a 1a                	push   $0x1a
  401a8e:	e8 91 f6 ff ff       	call   0x401124
  401a93:	59                   	pop    %ecx
  401a94:	33 c9                	xor    %ecx,%ecx
  401a96:	b8 50 70 40 00       	mov    $0x407050,%eax
  401a9b:	8b 15 18 9e 40 00    	mov    0x409e18,%edx
  401aa1:	89 04 11             	mov    %eax,(%ecx,%edx,1)
  401aa4:	83 c0 20             	add    $0x20,%eax
  401aa7:	83 c1 04             	add    $0x4,%ecx
  401aaa:	3d d0 72 40 00       	cmp    $0x4072d0,%eax
  401aaf:	7c ea                	jl     0x401a9b
  401ab1:	33 d2                	xor    %edx,%edx
  401ab3:	b9 60 70 40 00       	mov    $0x407060,%ecx
  401ab8:	8b c2                	mov    %edx,%eax
  401aba:	8b f2                	mov    %edx,%esi
  401abc:	c1 f8 05             	sar    $0x5,%eax
  401abf:	83 e6 1f             	and    $0x1f,%esi
  401ac2:	8b 04 85 00 9d 40 00 	mov    0x409d00(,%eax,4),%eax
  401ac9:	8b 04 f0             	mov    (%eax,%esi,8),%eax
  401acc:	83 f8 ff             	cmp    $0xffffffff,%eax
  401acf:	74 04                	je     0x401ad5
  401ad1:	85 c0                	test   %eax,%eax
  401ad3:	75 03                	jne    0x401ad8
  401ad5:	83 09 ff             	orl    $0xffffffff,(%ecx)
  401ad8:	83 c1 20             	add    $0x20,%ecx
  401adb:	42                   	inc    %edx
  401adc:	81 f9 c0 70 40 00    	cmp    $0x4070c0,%ecx
  401ae2:	7c d4                	jl     0x401ab8
  401ae4:	5e                   	pop    %esi
  401ae5:	c3                   	ret    
  401ae6:	e8 18 0f 00 00       	call   0x402a03
  401aeb:	80 3d 40 99 40 00 00 	cmpb   $0x0,0x409940
  401af2:	74 05                	je     0x401af9
  401af4:	e9 22 13 00 00       	jmp    0x402e1b
  401af9:	c3                   	ret    
  401afa:	a1 14 9e 40 00       	mov    0x409e14,%eax
  401aff:	85 c0                	test   %eax,%eax
  401b01:	74 02                	je     0x401b05
  401b03:	ff d0                	call   *%eax
  401b05:	68 14 70 40 00       	push   $0x407014
  401b0a:	68 08 70 40 00       	push   $0x407008
  401b0f:	e8 ce 00 00 00       	call   0x401be2
  401b14:	68 04 70 40 00       	push   $0x407004
  401b19:	68 00 70 40 00       	push   $0x407000
  401b1e:	e8 bf 00 00 00       	call   0x401be2
  401b23:	83 c4 10             	add    $0x10,%esp
  401b26:	c3                   	ret    
  401b27:	6a 00                	push   $0x0
  401b29:	6a 00                	push   $0x0
  401b2b:	ff 74 24 0c          	pushl  0xc(%esp)
  401b2f:	e8 15 00 00 00       	call   0x401b49
  401b34:	83 c4 0c             	add    $0xc,%esp
  401b37:	c3                   	ret    
  401b38:	6a 00                	push   $0x0
  401b3a:	6a 01                	push   $0x1
  401b3c:	ff 74 24 0c          	pushl  0xc(%esp)
  401b40:	e8 04 00 00 00       	call   0x401b49
  401b45:	83 c4 0c             	add    $0xc,%esp
  401b48:	c3                   	ret    
  401b49:	57                   	push   %edi
  401b4a:	6a 01                	push   $0x1
  401b4c:	5f                   	pop    %edi
  401b4d:	39 3d 48 99 40 00    	cmp    %edi,0x409948
  401b53:	75 11                	jne    0x401b66
  401b55:	ff 74 24 08          	pushl  0x8(%esp)
  401b59:	ff 15 10 60 40 00    	call   *0x406010
  401b5f:	50                   	push   %eax
  401b60:	ff 15 0c 60 40 00    	call   *0x40600c
  401b66:	83 7c 24 0c 00       	cmpl   $0x0,0xc(%esp)
  401b6b:	53                   	push   %ebx
  401b6c:	8b 5c 24 14          	mov    0x14(%esp),%ebx
  401b70:	89 3d 44 99 40 00    	mov    %edi,0x409944
  401b76:	88 1d 40 99 40 00    	mov    %bl,0x409940
  401b7c:	75 3c                	jne    0x401bba
  401b7e:	a1 10 9e 40 00       	mov    0x409e10,%eax
  401b83:	85 c0                	test   %eax,%eax
  401b85:	74 22                	je     0x401ba9
  401b87:	8b 0d 0c 9e 40 00    	mov    0x409e0c,%ecx
  401b8d:	56                   	push   %esi
  401b8e:	8d 71 fc             	lea    -0x4(%ecx),%esi
  401b91:	3b f0                	cmp    %eax,%esi
  401b93:	72 13                	jb     0x401ba8
  401b95:	8b 06                	mov    (%esi),%eax
  401b97:	85 c0                	test   %eax,%eax
  401b99:	74 02                	je     0x401b9d
  401b9b:	ff d0                	call   *%eax
  401b9d:	83 ee 04             	sub    $0x4,%esi
  401ba0:	3b 35 10 9e 40 00    	cmp    0x409e10,%esi
  401ba6:	73 ed                	jae    0x401b95
  401ba8:	5e                   	pop    %esi
  401ba9:	68 20 70 40 00       	push   $0x407020
  401bae:	68 18 70 40 00       	push   $0x407018
  401bb3:	e8 2a 00 00 00       	call   0x401be2
  401bb8:	59                   	pop    %ecx
  401bb9:	59                   	pop    %ecx
  401bba:	68 28 70 40 00       	push   $0x407028
  401bbf:	68 24 70 40 00       	push   $0x407024
  401bc4:	e8 19 00 00 00       	call   0x401be2
  401bc9:	59                   	pop    %ecx
  401bca:	59                   	pop    %ecx
  401bcb:	85 db                	test   %ebx,%ebx
  401bcd:	5b                   	pop    %ebx
  401bce:	75 10                	jne    0x401be0
  401bd0:	ff 74 24 08          	pushl  0x8(%esp)
  401bd4:	89 3d 48 99 40 00    	mov    %edi,0x409948
  401bda:	ff 15 08 60 40 00    	call   *0x406008
  401be0:	5f                   	pop    %edi
  401be1:	c3                   	ret    
  401be2:	56                   	push   %esi
  401be3:	8b 74 24 08          	mov    0x8(%esp),%esi
  401be7:	3b 74 24 0c          	cmp    0xc(%esp),%esi
  401beb:	73 0d                	jae    0x401bfa
  401bed:	8b 06                	mov    (%esi),%eax
  401bef:	85 c0                	test   %eax,%eax
  401bf1:	74 02                	je     0x401bf5
  401bf3:	ff d0                	call   *%eax
  401bf5:	83 c6 04             	add    $0x4,%esi
  401bf8:	eb ed                	jmp    0x401be7
  401bfa:	5e                   	pop    %esi
  401bfb:	c3                   	ret    
  401bfc:	55                   	push   %ebp
  401bfd:	8b ec                	mov    %esp,%ebp
  401bff:	53                   	push   %ebx
  401c00:	ff 75 08             	pushl  0x8(%ebp)
  401c03:	e8 35 01 00 00       	call   0x401d3d
  401c08:	85 c0                	test   %eax,%eax
  401c0a:	59                   	pop    %ecx
  401c0b:	0f 84 20 01 00 00    	je     0x401d31
  401c11:	8b 58 08             	mov    0x8(%eax),%ebx
  401c14:	85 db                	test   %ebx,%ebx
  401c16:	0f 84 15 01 00 00    	je     0x401d31
  401c1c:	83 fb 05             	cmp    $0x5,%ebx
  401c1f:	75 0c                	jne    0x401c2d
  401c21:	83 60 08 00          	andl   $0x0,0x8(%eax)
  401c25:	6a 01                	push   $0x1
  401c27:	58                   	pop    %eax
  401c28:	e9 0d 01 00 00       	jmp    0x401d3a
  401c2d:	83 fb 01             	cmp    $0x1,%ebx
  401c30:	0f 84 f6 00 00 00    	je     0x401d2c
  401c36:	8b 0d 4c 99 40 00    	mov    0x40994c,%ecx
  401c3c:	89 4d 08             	mov    %ecx,0x8(%ebp)
  401c3f:	8b 4d 0c             	mov    0xc(%ebp),%ecx
  401c42:	89 0d 4c 99 40 00    	mov    %ecx,0x40994c
  401c48:	8b 48 04             	mov    0x4(%eax),%ecx
  401c4b:	83 f9 08             	cmp    $0x8,%ecx
  401c4e:	0f 85 c8 00 00 00    	jne    0x401d1c
  401c54:	8b 0d 48 73 40 00    	mov    0x407348,%ecx
  401c5a:	8b 15 4c 73 40 00    	mov    0x40734c,%edx
  401c60:	03 d1                	add    %ecx,%edx
  401c62:	56                   	push   %esi
  401c63:	3b ca                	cmp    %edx,%ecx
  401c65:	7d 15                	jge    0x401c7c
  401c67:	8d 34 49             	lea    (%ecx,%ecx,2),%esi
  401c6a:	2b d1                	sub    %ecx,%edx
  401c6c:	8d 34 b5 d8 72 40 00 	lea    0x4072d8(,%esi,4),%esi
  401c73:	83 26 00             	andl   $0x0,(%esi)
  401c76:	83 c6 0c             	add    $0xc,%esi
  401c79:	4a                   	dec    %edx
  401c7a:	75 f7                	jne    0x401c73
  401c7c:	8b 00                	mov    (%eax),%eax
  401c7e:	8b 35 54 73 40 00    	mov    0x407354,%esi
  401c84:	3d 8e 00 00 c0       	cmp    $0xc000008e,%eax
  401c89:	75 0c                	jne    0x401c97
  401c8b:	c7 05 54 73 40 00 83 	movl   $0x83,0x407354
  401c92:	00 00 00 
  401c95:	eb 70                	jmp    0x401d07
  401c97:	3d 90 00 00 c0       	cmp    $0xc0000090,%eax
  401c9c:	75 0c                	jne    0x401caa
  401c9e:	c7 05 54 73 40 00 81 	movl   $0x81,0x407354
  401ca5:	00 00 00 
  401ca8:	eb 5d                	jmp    0x401d07
  401caa:	3d 91 00 00 c0       	cmp    $0xc0000091,%eax
  401caf:	75 0c                	jne    0x401cbd
  401cb1:	c7 05 54 73 40 00 84 	movl   $0x84,0x407354
  401cb8:	00 00 00 
  401cbb:	eb 4a                	jmp    0x401d07
  401cbd:	3d 93 00 00 c0       	cmp    $0xc0000093,%eax
  401cc2:	75 0c                	jne    0x401cd0
  401cc4:	c7 05 54 73 40 00 85 	movl   $0x85,0x407354
  401ccb:	00 00 00 
  401cce:	eb 37                	jmp    0x401d07
  401cd0:	3d 8d 00 00 c0       	cmp    $0xc000008d,%eax
  401cd5:	75 0c                	jne    0x401ce3
  401cd7:	c7 05 54 73 40 00 82 	movl   $0x82,0x407354
  401cde:	00 00 00 
  401ce1:	eb 24                	jmp    0x401d07
  401ce3:	3d 8f 00 00 c0       	cmp    $0xc000008f,%eax
  401ce8:	75 0c                	jne    0x401cf6
  401cea:	c7 05 54 73 40 00 86 	movl   $0x86,0x407354
  401cf1:	00 00 00 
  401cf4:	eb 11                	jmp    0x401d07
  401cf6:	3d 92 00 00 c0       	cmp    $0xc0000092,%eax
  401cfb:	75 0a                	jne    0x401d07
  401cfd:	c7 05 54 73 40 00 8a 	movl   $0x8a,0x407354
  401d04:	00 00 00 
  401d07:	ff 35 54 73 40 00    	pushl  0x407354
  401d0d:	6a 08                	push   $0x8
  401d0f:	ff d3                	call   *%ebx
  401d11:	59                   	pop    %ecx
  401d12:	89 35 54 73 40 00    	mov    %esi,0x407354
  401d18:	59                   	pop    %ecx
  401d19:	5e                   	pop    %esi
  401d1a:	eb 08                	jmp    0x401d24
  401d1c:	83 60 08 00          	andl   $0x0,0x8(%eax)
  401d20:	51                   	push   %ecx
  401d21:	ff d3                	call   *%ebx
  401d23:	59                   	pop    %ecx
  401d24:	8b 45 08             	mov    0x8(%ebp),%eax
  401d27:	a3 4c 99 40 00       	mov    %eax,0x40994c
  401d2c:	83 c8 ff             	or     $0xffffffff,%eax
  401d2f:	eb 09                	jmp    0x401d3a
  401d31:	ff 75 0c             	pushl  0xc(%ebp)
  401d34:	ff 15 14 60 40 00    	call   *0x406014
  401d3a:	5b                   	pop    %ebx
  401d3b:	5d                   	pop    %ebp
  401d3c:	c3                   	ret    
  401d3d:	8b 54 24 04          	mov    0x4(%esp),%edx
  401d41:	8b 0d 50 73 40 00    	mov    0x407350,%ecx
  401d47:	39 15 d0 72 40 00    	cmp    %edx,0x4072d0
  401d4d:	56                   	push   %esi
  401d4e:	b8 d0 72 40 00       	mov    $0x4072d0,%eax
  401d53:	74 15                	je     0x401d6a
  401d55:	8d 34 49             	lea    (%ecx,%ecx,2),%esi
  401d58:	8d 34 b5 d0 72 40 00 	lea    0x4072d0(,%esi,4),%esi
  401d5f:	83 c0 0c             	add    $0xc,%eax
  401d62:	3b c6                	cmp    %esi,%eax
  401d64:	73 04                	jae    0x401d6a
  401d66:	39 10                	cmp    %edx,(%eax)
  401d68:	75 f5                	jne    0x401d5f
  401d6a:	8d 0c 49             	lea    (%ecx,%ecx,2),%ecx
  401d6d:	5e                   	pop    %esi
  401d6e:	8d 0c 8d d0 72 40 00 	lea    0x4072d0(,%ecx,4),%ecx
  401d75:	3b c1                	cmp    %ecx,%eax
  401d77:	73 04                	jae    0x401d7d
  401d79:	39 10                	cmp    %edx,(%eax)
  401d7b:	74 02                	je     0x401d7f
  401d7d:	33 c0                	xor    %eax,%eax
  401d7f:	c3                   	ret    
  401d80:	53                   	push   %ebx
  401d81:	33 db                	xor    %ebx,%ebx
  401d83:	39 1d 08 9e 40 00    	cmp    %ebx,0x409e08
  401d89:	56                   	push   %esi
  401d8a:	57                   	push   %edi
  401d8b:	75 05                	jne    0x401d92
  401d8d:	e8 02 16 00 00       	call   0x403394
  401d92:	8b 35 e8 98 40 00    	mov    0x4098e8,%esi
  401d98:	33 ff                	xor    %edi,%edi
  401d9a:	8a 06                	mov    (%esi),%al
  401d9c:	3a c3                	cmp    %bl,%al
  401d9e:	74 12                	je     0x401db2
  401da0:	3c 3d                	cmp    $0x3d,%al
  401da2:	74 01                	je     0x401da5
  401da4:	47                   	inc    %edi
  401da5:	56                   	push   %esi
  401da6:	e8 d5 0c 00 00       	call   0x402a80
  401dab:	59                   	pop    %ecx
  401dac:	8d 74 06 01          	lea    0x1(%esi,%eax,1),%esi
  401db0:	eb e8                	jmp    0x401d9a
  401db2:	8d 04 bd 04 00 00 00 	lea    0x4(,%edi,4),%eax
  401db9:	50                   	push   %eax
  401dba:	e8 d5 0a 00 00       	call   0x402894
  401dbf:	8b f0                	mov    %eax,%esi
  401dc1:	59                   	pop    %ecx
  401dc2:	3b f3                	cmp    %ebx,%esi
  401dc4:	89 35 28 99 40 00    	mov    %esi,0x409928
  401dca:	75 08                	jne    0x401dd4
  401dcc:	6a 09                	push   $0x9
  401dce:	e8 51 f3 ff ff       	call   0x401124
  401dd3:	59                   	pop    %ecx
  401dd4:	8b 3d e8 98 40 00    	mov    0x4098e8,%edi
  401dda:	38 1f                	cmp    %bl,(%edi)
  401ddc:	74 39                	je     0x401e17
  401dde:	55                   	push   %ebp
  401ddf:	57                   	push   %edi
  401de0:	e8 9b 0c 00 00       	call   0x402a80
  401de5:	8b e8                	mov    %eax,%ebp
  401de7:	59                   	pop    %ecx
  401de8:	45                   	inc    %ebp
  401de9:	80 3f 3d             	cmpb   $0x3d,(%edi)
  401dec:	74 22                	je     0x401e10
  401dee:	55                   	push   %ebp
  401def:	e8 a0 0a 00 00       	call   0x402894
  401df4:	3b c3                	cmp    %ebx,%eax
  401df6:	59                   	pop    %ecx
  401df7:	89 06                	mov    %eax,(%esi)
  401df9:	75 08                	jne    0x401e03
  401dfb:	6a 09                	push   $0x9
  401dfd:	e8 22 f3 ff ff       	call   0x401124
  401e02:	59                   	pop    %ecx
  401e03:	57                   	push   %edi
  401e04:	ff 36                	pushl  (%esi)
  401e06:	e8 d5 10 00 00       	call   0x402ee0
  401e0b:	59                   	pop    %ecx
  401e0c:	83 c6 04             	add    $0x4,%esi
  401e0f:	59                   	pop    %ecx
  401e10:	03 fd                	add    %ebp,%edi
  401e12:	38 1f                	cmp    %bl,(%edi)
  401e14:	75 c9                	jne    0x401ddf
  401e16:	5d                   	pop    %ebp
  401e17:	ff 35 e8 98 40 00    	pushl  0x4098e8
  401e1d:	e8 51 10 00 00       	call   0x402e73
  401e22:	59                   	pop    %ecx
  401e23:	89 1d e8 98 40 00    	mov    %ebx,0x4098e8
  401e29:	89 1e                	mov    %ebx,(%esi)
  401e2b:	5f                   	pop    %edi
  401e2c:	5e                   	pop    %esi
  401e2d:	c7 05 04 9e 40 00 01 	movl   $0x1,0x409e04
  401e34:	00 00 00 
  401e37:	5b                   	pop    %ebx
  401e38:	c3                   	ret    
  401e39:	55                   	push   %ebp
  401e3a:	8b ec                	mov    %esp,%ebp
  401e3c:	51                   	push   %ecx
  401e3d:	51                   	push   %ecx
  401e3e:	53                   	push   %ebx
  401e3f:	33 db                	xor    %ebx,%ebx
  401e41:	39 1d 08 9e 40 00    	cmp    %ebx,0x409e08
  401e47:	56                   	push   %esi
  401e48:	57                   	push   %edi
  401e49:	75 05                	jne    0x401e50
  401e4b:	e8 44 15 00 00       	call   0x403394
  401e50:	be 50 99 40 00       	mov    $0x409950,%esi
  401e55:	68 04 01 00 00       	push   $0x104
  401e5a:	56                   	push   %esi
  401e5b:	53                   	push   %ebx
  401e5c:	ff 15 18 60 40 00    	call   *0x406018
  401e62:	a1 24 ae 40 00       	mov    0x40ae24,%eax
  401e67:	89 35 38 99 40 00    	mov    %esi,0x409938
  401e6d:	8b fe                	mov    %esi,%edi
  401e6f:	38 18                	cmp    %bl,(%eax)
  401e71:	74 02                	je     0x401e75
  401e73:	8b f8                	mov    %eax,%edi
  401e75:	8d 45 f8             	lea    -0x8(%ebp),%eax
  401e78:	50                   	push   %eax
  401e79:	8d 45 fc             	lea    -0x4(%ebp),%eax
  401e7c:	50                   	push   %eax
  401e7d:	53                   	push   %ebx
  401e7e:	53                   	push   %ebx
  401e7f:	57                   	push   %edi
  401e80:	e8 4d 00 00 00       	call   0x401ed2
  401e85:	8b 45 f8             	mov    -0x8(%ebp),%eax
  401e88:	8b 4d fc             	mov    -0x4(%ebp),%ecx
  401e8b:	8d 04 88             	lea    (%eax,%ecx,4),%eax
  401e8e:	50                   	push   %eax
  401e8f:	e8 00 0a 00 00       	call   0x402894
  401e94:	8b f0                	mov    %eax,%esi
  401e96:	83 c4 18             	add    $0x18,%esp
  401e99:	3b f3                	cmp    %ebx,%esi
  401e9b:	75 08                	jne    0x401ea5
  401e9d:	6a 08                	push   $0x8
  401e9f:	e8 80 f2 ff ff       	call   0x401124
  401ea4:	59                   	pop    %ecx
  401ea5:	8d 45 f8             	lea    -0x8(%ebp),%eax
  401ea8:	50                   	push   %eax
  401ea9:	8d 45 fc             	lea    -0x4(%ebp),%eax
  401eac:	50                   	push   %eax
  401ead:	8b 45 fc             	mov    -0x4(%ebp),%eax
  401eb0:	8d 04 86             	lea    (%esi,%eax,4),%eax
  401eb3:	50                   	push   %eax
  401eb4:	56                   	push   %esi
  401eb5:	57                   	push   %edi
  401eb6:	e8 17 00 00 00       	call   0x401ed2
  401ebb:	8b 45 fc             	mov    -0x4(%ebp),%eax
  401ebe:	83 c4 14             	add    $0x14,%esp
  401ec1:	48                   	dec    %eax
  401ec2:	89 35 20 99 40 00    	mov    %esi,0x409920
  401ec8:	5f                   	pop    %edi
  401ec9:	5e                   	pop    %esi
  401eca:	a3 1c 99 40 00       	mov    %eax,0x40991c
  401ecf:	5b                   	pop    %ebx
  401ed0:	c9                   	leave  
  401ed1:	c3                   	ret    
  401ed2:	55                   	push   %ebp
  401ed3:	8b ec                	mov    %esp,%ebp
  401ed5:	8b 4d 18             	mov    0x18(%ebp),%ecx
  401ed8:	8b 45 14             	mov    0x14(%ebp),%eax
  401edb:	53                   	push   %ebx
  401edc:	56                   	push   %esi
  401edd:	83 21 00             	andl   $0x0,(%ecx)
  401ee0:	8b 75 10             	mov    0x10(%ebp),%esi
  401ee3:	57                   	push   %edi
  401ee4:	8b 7d 0c             	mov    0xc(%ebp),%edi
  401ee7:	c7 00 01 00 00 00    	movl   $0x1,(%eax)
  401eed:	8b 45 08             	mov    0x8(%ebp),%eax
  401ef0:	85 ff                	test   %edi,%edi
  401ef2:	74 08                	je     0x401efc
  401ef4:	89 37                	mov    %esi,(%edi)
  401ef6:	83 c7 04             	add    $0x4,%edi
  401ef9:	89 7d 0c             	mov    %edi,0xc(%ebp)
  401efc:	80 38 22             	cmpb   $0x22,(%eax)
  401eff:	75 44                	jne    0x401f45
  401f01:	8a 50 01             	mov    0x1(%eax),%dl
  401f04:	40                   	inc    %eax
  401f05:	80 fa 22             	cmp    $0x22,%dl
  401f08:	74 29                	je     0x401f33
  401f0a:	84 d2                	test   %dl,%dl
  401f0c:	74 25                	je     0x401f33
  401f0e:	0f b6 d2             	movzbl %dl,%edx
  401f11:	f6 82 e1 9b 40 00 04 	testb  $0x4,0x409be1(%edx)
  401f18:	74 0c                	je     0x401f26
  401f1a:	ff 01                	incl   (%ecx)
  401f1c:	85 f6                	test   %esi,%esi
  401f1e:	74 06                	je     0x401f26
  401f20:	8a 10                	mov    (%eax),%dl
  401f22:	88 16                	mov    %dl,(%esi)
  401f24:	46                   	inc    %esi
  401f25:	40                   	inc    %eax
  401f26:	ff 01                	incl   (%ecx)
  401f28:	85 f6                	test   %esi,%esi
  401f2a:	74 d5                	je     0x401f01
  401f2c:	8a 10                	mov    (%eax),%dl
  401f2e:	88 16                	mov    %dl,(%esi)
  401f30:	46                   	inc    %esi
  401f31:	eb ce                	jmp    0x401f01
  401f33:	ff 01                	incl   (%ecx)
  401f35:	85 f6                	test   %esi,%esi
  401f37:	74 04                	je     0x401f3d
  401f39:	80 26 00             	andb   $0x0,(%esi)
  401f3c:	46                   	inc    %esi
  401f3d:	80 38 22             	cmpb   $0x22,(%eax)
  401f40:	75 46                	jne    0x401f88
  401f42:	40                   	inc    %eax
  401f43:	eb 43                	jmp    0x401f88
  401f45:	ff 01                	incl   (%ecx)
  401f47:	85 f6                	test   %esi,%esi
  401f49:	74 05                	je     0x401f50
  401f4b:	8a 10                	mov    (%eax),%dl
  401f4d:	88 16                	mov    %dl,(%esi)
  401f4f:	46                   	inc    %esi
  401f50:	8a 10                	mov    (%eax),%dl
  401f52:	40                   	inc    %eax
  401f53:	0f b6 da             	movzbl %dl,%ebx
  401f56:	f6 83 e1 9b 40 00 04 	testb  $0x4,0x409be1(%ebx)
  401f5d:	74 0c                	je     0x401f6b
  401f5f:	ff 01                	incl   (%ecx)
  401f61:	85 f6                	test   %esi,%esi
  401f63:	74 05                	je     0x401f6a
  401f65:	8a 18                	mov    (%eax),%bl
  401f67:	88 1e                	mov    %bl,(%esi)
  401f69:	46                   	inc    %esi
  401f6a:	40                   	inc    %eax
  401f6b:	80 fa 20             	cmp    $0x20,%dl
  401f6e:	74 09                	je     0x401f79
  401f70:	84 d2                	test   %dl,%dl
  401f72:	74 09                	je     0x401f7d
  401f74:	80 fa 09             	cmp    $0x9,%dl
  401f77:	75 cc                	jne    0x401f45
  401f79:	84 d2                	test   %dl,%dl
  401f7b:	75 03                	jne    0x401f80
  401f7d:	48                   	dec    %eax
  401f7e:	eb 08                	jmp    0x401f88
  401f80:	85 f6                	test   %esi,%esi
  401f82:	74 04                	je     0x401f88
  401f84:	80 66 ff 00          	andb   $0x0,-0x1(%esi)
  401f88:	83 65 18 00          	andl   $0x0,0x18(%ebp)
  401f8c:	80 38 00             	cmpb   $0x0,(%eax)
  401f8f:	0f 84 e0 00 00 00    	je     0x402075
  401f95:	8a 10                	mov    (%eax),%dl
  401f97:	80 fa 20             	cmp    $0x20,%dl
  401f9a:	74 05                	je     0x401fa1
  401f9c:	80 fa 09             	cmp    $0x9,%dl
  401f9f:	75 03                	jne    0x401fa4
  401fa1:	40                   	inc    %eax
  401fa2:	eb f1                	jmp    0x401f95
  401fa4:	80 38 00             	cmpb   $0x0,(%eax)
  401fa7:	0f 84 c8 00 00 00    	je     0x402075
  401fad:	85 ff                	test   %edi,%edi
  401faf:	74 08                	je     0x401fb9
  401fb1:	89 37                	mov    %esi,(%edi)
  401fb3:	83 c7 04             	add    $0x4,%edi
  401fb6:	89 7d 0c             	mov    %edi,0xc(%ebp)
  401fb9:	8b 55 14             	mov    0x14(%ebp),%edx
  401fbc:	ff 02                	incl   (%edx)
  401fbe:	c7 45 08 01 00 00 00 	movl   $0x1,0x8(%ebp)
  401fc5:	33 db                	xor    %ebx,%ebx
  401fc7:	80 38 5c             	cmpb   $0x5c,(%eax)
  401fca:	75 04                	jne    0x401fd0
  401fcc:	40                   	inc    %eax
  401fcd:	43                   	inc    %ebx
  401fce:	eb f7                	jmp    0x401fc7
  401fd0:	80 38 22             	cmpb   $0x22,(%eax)
  401fd3:	75 2c                	jne    0x402001
  401fd5:	f6 c3 01             	test   $0x1,%bl
  401fd8:	75 25                	jne    0x401fff
  401fda:	33 ff                	xor    %edi,%edi
  401fdc:	39 7d 18             	cmp    %edi,0x18(%ebp)
  401fdf:	74 0d                	je     0x401fee
  401fe1:	80 78 01 22          	cmpb   $0x22,0x1(%eax)
  401fe5:	8d 50 01             	lea    0x1(%eax),%edx
  401fe8:	75 04                	jne    0x401fee
  401fea:	8b c2                	mov    %edx,%eax
  401fec:	eb 03                	jmp    0x401ff1
  401fee:	89 7d 08             	mov    %edi,0x8(%ebp)
  401ff1:	8b 7d 0c             	mov    0xc(%ebp),%edi
  401ff4:	33 d2                	xor    %edx,%edx
  401ff6:	39 55 18             	cmp    %edx,0x18(%ebp)
  401ff9:	0f 94 c2             	sete   %dl
  401ffc:	89 55 18             	mov    %edx,0x18(%ebp)
  401fff:	d1 eb                	shr    %ebx
  402001:	8b d3                	mov    %ebx,%edx
  402003:	4b                   	dec    %ebx
  402004:	85 d2                	test   %edx,%edx
  402006:	74 0e                	je     0x402016
  402008:	43                   	inc    %ebx
  402009:	85 f6                	test   %esi,%esi
  40200b:	74 04                	je     0x402011
  40200d:	c6 06 5c             	movb   $0x5c,(%esi)
  402010:	46                   	inc    %esi
  402011:	ff 01                	incl   (%ecx)
  402013:	4b                   	dec    %ebx
  402014:	75 f3                	jne    0x402009
  402016:	8a 10                	mov    (%eax),%dl
  402018:	84 d2                	test   %dl,%dl
  40201a:	74 4a                	je     0x402066
  40201c:	83 7d 18 00          	cmpl   $0x0,0x18(%ebp)
  402020:	75 0a                	jne    0x40202c
  402022:	80 fa 20             	cmp    $0x20,%dl
  402025:	74 3f                	je     0x402066
  402027:	80 fa 09             	cmp    $0x9,%dl
  40202a:	74 3a                	je     0x402066
  40202c:	83 7d 08 00          	cmpl   $0x0,0x8(%ebp)
  402030:	74 2e                	je     0x402060
  402032:	85 f6                	test   %esi,%esi
  402034:	74 19                	je     0x40204f
  402036:	0f b6 da             	movzbl %dl,%ebx
  402039:	f6 83 e1 9b 40 00 04 	testb  $0x4,0x409be1(%ebx)
  402040:	74 06                	je     0x402048
  402042:	88 16                	mov    %dl,(%esi)
  402044:	46                   	inc    %esi
  402045:	40                   	inc    %eax
  402046:	ff 01                	incl   (%ecx)
  402048:	8a 10                	mov    (%eax),%dl
  40204a:	88 16                	mov    %dl,(%esi)
  40204c:	46                   	inc    %esi
  40204d:	eb 0f                	jmp    0x40205e
  40204f:	0f b6 d2             	movzbl %dl,%edx
  402052:	f6 82 e1 9b 40 00 04 	testb  $0x4,0x409be1(%edx)
  402059:	74 03                	je     0x40205e
  40205b:	40                   	inc    %eax
  40205c:	ff 01                	incl   (%ecx)
  40205e:	ff 01                	incl   (%ecx)
  402060:	40                   	inc    %eax
  402061:	e9 58 ff ff ff       	jmp    0x401fbe
  402066:	85 f6                	test   %esi,%esi
  402068:	74 04                	je     0x40206e
  40206a:	80 26 00             	andb   $0x0,(%esi)
  40206d:	46                   	inc    %esi
  40206e:	ff 01                	incl   (%ecx)
  402070:	e9 17 ff ff ff       	jmp    0x401f8c
  402075:	85 ff                	test   %edi,%edi
  402077:	74 03                	je     0x40207c
  402079:	83 27 00             	andl   $0x0,(%edi)
  40207c:	8b 45 14             	mov    0x14(%ebp),%eax
  40207f:	5f                   	pop    %edi
  402080:	5e                   	pop    %esi
  402081:	5b                   	pop    %ebx
  402082:	ff 00                	incl   (%eax)
  402084:	5d                   	pop    %ebp
  402085:	c3                   	ret    
  402086:	51                   	push   %ecx
  402087:	51                   	push   %ecx
  402088:	a1 54 9a 40 00       	mov    0x409a54,%eax
  40208d:	53                   	push   %ebx
  40208e:	55                   	push   %ebp
  40208f:	8b 2d 2c 60 40 00    	mov    0x40602c,%ebp
  402095:	56                   	push   %esi
  402096:	57                   	push   %edi
  402097:	33 db                	xor    %ebx,%ebx
  402099:	33 f6                	xor    %esi,%esi
  40209b:	33 ff                	xor    %edi,%edi
  40209d:	3b c3                	cmp    %ebx,%eax
  40209f:	75 33                	jne    0x4020d4
  4020a1:	ff d5                	call   *%ebp
  4020a3:	8b f0                	mov    %eax,%esi
  4020a5:	3b f3                	cmp    %ebx,%esi
  4020a7:	74 0c                	je     0x4020b5
  4020a9:	c7 05 54 9a 40 00 01 	movl   $0x1,0x409a54
  4020b0:	00 00 00 
  4020b3:	eb 28                	jmp    0x4020dd
  4020b5:	ff 15 28 60 40 00    	call   *0x406028
  4020bb:	8b f8                	mov    %eax,%edi
  4020bd:	3b fb                	cmp    %ebx,%edi
  4020bf:	0f 84 ea 00 00 00    	je     0x4021af
  4020c5:	c7 05 54 9a 40 00 02 	movl   $0x2,0x409a54
  4020cc:	00 00 00 
  4020cf:	e9 8f 00 00 00       	jmp    0x402163
  4020d4:	83 f8 01             	cmp    $0x1,%eax
  4020d7:	0f 85 81 00 00 00    	jne    0x40215e
  4020dd:	3b f3                	cmp    %ebx,%esi
  4020df:	75 0c                	jne    0x4020ed
  4020e1:	ff d5                	call   *%ebp
  4020e3:	8b f0                	mov    %eax,%esi
  4020e5:	3b f3                	cmp    %ebx,%esi
  4020e7:	0f 84 c2 00 00 00    	je     0x4021af
  4020ed:	66 39 1e             	cmp    %bx,(%esi)
  4020f0:	8b c6                	mov    %esi,%eax
  4020f2:	74 0e                	je     0x402102
  4020f4:	40                   	inc    %eax
  4020f5:	40                   	inc    %eax
  4020f6:	66 39 18             	cmp    %bx,(%eax)
  4020f9:	75 f9                	jne    0x4020f4
  4020fb:	40                   	inc    %eax
  4020fc:	40                   	inc    %eax
  4020fd:	66 39 18             	cmp    %bx,(%eax)
  402100:	75 f2                	jne    0x4020f4
  402102:	2b c6                	sub    %esi,%eax
  402104:	8b 3d 24 60 40 00    	mov    0x406024,%edi
  40210a:	d1 f8                	sar    %eax
  40210c:	53                   	push   %ebx
  40210d:	53                   	push   %ebx
  40210e:	40                   	inc    %eax
  40210f:	53                   	push   %ebx
  402110:	53                   	push   %ebx
  402111:	50                   	push   %eax
  402112:	56                   	push   %esi
  402113:	53                   	push   %ebx
  402114:	53                   	push   %ebx
  402115:	89 44 24 34          	mov    %eax,0x34(%esp)
  402119:	ff d7                	call   *%edi
  40211b:	8b e8                	mov    %eax,%ebp
  40211d:	3b eb                	cmp    %ebx,%ebp
  40211f:	74 32                	je     0x402153
  402121:	55                   	push   %ebp
  402122:	e8 6d 07 00 00       	call   0x402894
  402127:	3b c3                	cmp    %ebx,%eax
  402129:	59                   	pop    %ecx
  40212a:	89 44 24 10          	mov    %eax,0x10(%esp)
  40212e:	74 23                	je     0x402153
  402130:	53                   	push   %ebx
  402131:	53                   	push   %ebx
  402132:	55                   	push   %ebp
  402133:	50                   	push   %eax
  402134:	ff 74 24 24          	pushl  0x24(%esp)
  402138:	56                   	push   %esi
  402139:	53                   	push   %ebx
  40213a:	53                   	push   %ebx
  40213b:	ff d7                	call   *%edi
  40213d:	85 c0                	test   %eax,%eax
  40213f:	75 0e                	jne    0x40214f
  402141:	ff 74 24 10          	pushl  0x10(%esp)
  402145:	e8 29 0d 00 00       	call   0x402e73
  40214a:	59                   	pop    %ecx
  40214b:	89 5c 24 10          	mov    %ebx,0x10(%esp)
  40214f:	8b 5c 24 10          	mov    0x10(%esp),%ebx
  402153:	56                   	push   %esi
  402154:	ff 15 20 60 40 00    	call   *0x406020
  40215a:	8b c3                	mov    %ebx,%eax
  40215c:	eb 53                	jmp    0x4021b1
  40215e:	83 f8 02             	cmp    $0x2,%eax
  402161:	75 4c                	jne    0x4021af
  402163:	3b fb                	cmp    %ebx,%edi
  402165:	75 0c                	jne    0x402173
  402167:	ff 15 28 60 40 00    	call   *0x406028
  40216d:	8b f8                	mov    %eax,%edi
  40216f:	3b fb                	cmp    %ebx,%edi
  402171:	74 3c                	je     0x4021af
  402173:	38 1f                	cmp    %bl,(%edi)
  402175:	8b c7                	mov    %edi,%eax
  402177:	74 0a                	je     0x402183
  402179:	40                   	inc    %eax
  40217a:	38 18                	cmp    %bl,(%eax)
  40217c:	75 fb                	jne    0x402179
  40217e:	40                   	inc    %eax
  40217f:	38 18                	cmp    %bl,(%eax)
  402181:	75 f6                	jne    0x402179
  402183:	2b c7                	sub    %edi,%eax
  402185:	40                   	inc    %eax
  402186:	8b e8                	mov    %eax,%ebp
  402188:	55                   	push   %ebp
  402189:	e8 06 07 00 00       	call   0x402894
  40218e:	8b f0                	mov    %eax,%esi
  402190:	59                   	pop    %ecx
  402191:	3b f3                	cmp    %ebx,%esi
  402193:	75 04                	jne    0x402199
  402195:	33 f6                	xor    %esi,%esi
  402197:	eb 0b                	jmp    0x4021a4
  402199:	55                   	push   %ebp
  40219a:	57                   	push   %edi
  40219b:	56                   	push   %esi
  40219c:	e8 0f 12 00 00       	call   0x4033b0
  4021a1:	83 c4 0c             	add    $0xc,%esp
  4021a4:	57                   	push   %edi
  4021a5:	ff 15 1c 60 40 00    	call   *0x40601c
  4021ab:	8b c6                	mov    %esi,%eax
  4021ad:	eb 02                	jmp    0x4021b1
  4021af:	33 c0                	xor    %eax,%eax
  4021b1:	5f                   	pop    %edi
  4021b2:	5e                   	pop    %esi
  4021b3:	5d                   	pop    %ebp
  4021b4:	5b                   	pop    %ebx
  4021b5:	59                   	pop    %ecx
  4021b6:	59                   	pop    %ecx
  4021b7:	c3                   	ret    
  4021b8:	83 ec 44             	sub    $0x44,%esp
  4021bb:	53                   	push   %ebx
  4021bc:	55                   	push   %ebp
  4021bd:	56                   	push   %esi
  4021be:	57                   	push   %edi
  4021bf:	68 00 01 00 00       	push   $0x100
  4021c4:	e8 cb 06 00 00       	call   0x402894
  4021c9:	8b f0                	mov    %eax,%esi
  4021cb:	59                   	pop    %ecx
  4021cc:	85 f6                	test   %esi,%esi
  4021ce:	75 08                	jne    0x4021d8
  4021d0:	6a 1b                	push   $0x1b
  4021d2:	e8 4d ef ff ff       	call   0x401124
  4021d7:	59                   	pop    %ecx
  4021d8:	89 35 00 9d 40 00    	mov    %esi,0x409d00
  4021de:	c7 05 00 9e 40 00 20 	movl   $0x20,0x409e00
  4021e5:	00 00 00 
  4021e8:	8d 86 00 01 00 00    	lea    0x100(%esi),%eax
  4021ee:	3b f0                	cmp    %eax,%esi
  4021f0:	73 1a                	jae    0x40220c
  4021f2:	80 66 04 00          	andb   $0x0,0x4(%esi)
  4021f6:	83 0e ff             	orl    $0xffffffff,(%esi)
  4021f9:	c6 46 05 0a          	movb   $0xa,0x5(%esi)
  4021fd:	a1 00 9d 40 00       	mov    0x409d00,%eax
  402202:	83 c6 08             	add    $0x8,%esi
  402205:	05 00 01 00 00       	add    $0x100,%eax
  40220a:	eb e2                	jmp    0x4021ee
  40220c:	8d 44 24 10          	lea    0x10(%esp),%eax
  402210:	50                   	push   %eax
  402211:	ff 15 3c 60 40 00    	call   *0x40603c
  402217:	66 83 7c 24 42 00    	cmpw   $0x0,0x42(%esp)
  40221d:	0f 84 c5 00 00 00    	je     0x4022e8
  402223:	8b 44 24 44          	mov    0x44(%esp),%eax
  402227:	85 c0                	test   %eax,%eax
  402229:	0f 84 b9 00 00 00    	je     0x4022e8
  40222f:	8b 30                	mov    (%eax),%esi
  402231:	8d 68 04             	lea    0x4(%eax),%ebp
  402234:	b8 00 08 00 00       	mov    $0x800,%eax
  402239:	3b f0                	cmp    %eax,%esi
  40223b:	8d 1c 2e             	lea    (%esi,%ebp,1),%ebx
  40223e:	7c 02                	jl     0x402242
  402240:	8b f0                	mov    %eax,%esi
  402242:	39 35 00 9e 40 00    	cmp    %esi,0x409e00
  402248:	7d 52                	jge    0x40229c
  40224a:	bf 04 9d 40 00       	mov    $0x409d04,%edi
  40224f:	68 00 01 00 00       	push   $0x100
  402254:	e8 3b 06 00 00       	call   0x402894
  402259:	85 c0                	test   %eax,%eax
  40225b:	59                   	pop    %ecx
  40225c:	74 38                	je     0x402296
  40225e:	83 05 00 9e 40 00 20 	addl   $0x20,0x409e00
  402265:	89 07                	mov    %eax,(%edi)
  402267:	8d 88 00 01 00 00    	lea    0x100(%eax),%ecx
  40226d:	3b c1                	cmp    %ecx,%eax
  40226f:	73 18                	jae    0x402289
  402271:	80 60 04 00          	andb   $0x0,0x4(%eax)
  402275:	83 08 ff             	orl    $0xffffffff,(%eax)
  402278:	c6 40 05 0a          	movb   $0xa,0x5(%eax)
  40227c:	8b 0f                	mov    (%edi),%ecx
  40227e:	83 c0 08             	add    $0x8,%eax
  402281:	81 c1 00 01 00 00    	add    $0x100,%ecx
  402287:	eb e4                	jmp    0x40226d
  402289:	83 c7 04             	add    $0x4,%edi
  40228c:	39 35 00 9e 40 00    	cmp    %esi,0x409e00
  402292:	7c bb                	jl     0x40224f
  402294:	eb 06                	jmp    0x40229c
  402296:	8b 35 00 9e 40 00    	mov    0x409e00,%esi
  40229c:	33 ff                	xor    %edi,%edi
  40229e:	85 f6                	test   %esi,%esi
  4022a0:	7e 46                	jle    0x4022e8
  4022a2:	8b 03                	mov    (%ebx),%eax
  4022a4:	83 f8 ff             	cmp    $0xffffffff,%eax
  4022a7:	74 36                	je     0x4022df
  4022a9:	8a 4d 00             	mov    0x0(%ebp),%cl
  4022ac:	f6 c1 01             	test   $0x1,%cl
  4022af:	74 2e                	je     0x4022df
  4022b1:	f6 c1 08             	test   $0x8,%cl
  4022b4:	75 0b                	jne    0x4022c1
  4022b6:	50                   	push   %eax
  4022b7:	ff 15 38 60 40 00    	call   *0x406038
  4022bd:	85 c0                	test   %eax,%eax
  4022bf:	74 1e                	je     0x4022df
  4022c1:	8b c7                	mov    %edi,%eax
  4022c3:	8b cf                	mov    %edi,%ecx
  4022c5:	c1 f8 05             	sar    $0x5,%eax
  4022c8:	83 e1 1f             	and    $0x1f,%ecx
  4022cb:	8b 04 85 00 9d 40 00 	mov    0x409d00(,%eax,4),%eax
  4022d2:	8d 04 c8             	lea    (%eax,%ecx,8),%eax
  4022d5:	8b 0b                	mov    (%ebx),%ecx
  4022d7:	89 08                	mov    %ecx,(%eax)
  4022d9:	8a 4d 00             	mov    0x0(%ebp),%cl
  4022dc:	88 48 04             	mov    %cl,0x4(%eax)
  4022df:	47                   	inc    %edi
  4022e0:	45                   	inc    %ebp
  4022e1:	83 c3 04             	add    $0x4,%ebx
  4022e4:	3b fe                	cmp    %esi,%edi
  4022e6:	7c ba                	jl     0x4022a2
  4022e8:	33 db                	xor    %ebx,%ebx
  4022ea:	a1 00 9d 40 00       	mov    0x409d00,%eax
  4022ef:	83 3c d8 ff          	cmpl   $0xffffffff,(%eax,%ebx,8)
  4022f3:	8d 34 d8             	lea    (%eax,%ebx,8),%esi
  4022f6:	75 4d                	jne    0x402345
  4022f8:	85 db                	test   %ebx,%ebx
  4022fa:	c6 46 04 81          	movb   $0x81,0x4(%esi)
  4022fe:	75 05                	jne    0x402305
  402300:	6a f6                	push   $0xfffffff6
  402302:	58                   	pop    %eax
  402303:	eb 0a                	jmp    0x40230f
  402305:	8b c3                	mov    %ebx,%eax
  402307:	48                   	dec    %eax
  402308:	f7 d8                	neg    %eax
  40230a:	1b c0                	sbb    %eax,%eax
  40230c:	83 c0 f5             	add    $0xfffffff5,%eax
  40230f:	50                   	push   %eax
  402310:	ff 15 34 60 40 00    	call   *0x406034
  402316:	8b f8                	mov    %eax,%edi
  402318:	83 ff ff             	cmp    $0xffffffff,%edi
  40231b:	74 17                	je     0x402334
  40231d:	57                   	push   %edi
  40231e:	ff 15 38 60 40 00    	call   *0x406038
  402324:	85 c0                	test   %eax,%eax
  402326:	74 0c                	je     0x402334
  402328:	25 ff 00 00 00       	and    $0xff,%eax
  40232d:	89 3e                	mov    %edi,(%esi)
  40232f:	83 f8 02             	cmp    $0x2,%eax
  402332:	75 06                	jne    0x40233a
  402334:	80 4e 04 40          	orb    $0x40,0x4(%esi)
  402338:	eb 0f                	jmp    0x402349
  40233a:	83 f8 03             	cmp    $0x3,%eax
  40233d:	75 0a                	jne    0x402349
  40233f:	80 4e 04 08          	orb    $0x8,0x4(%esi)
  402343:	eb 04                	jmp    0x402349
  402345:	80 4e 04 80          	orb    $0x80,0x4(%esi)
  402349:	43                   	inc    %ebx
  40234a:	83 fb 03             	cmp    $0x3,%ebx
  40234d:	7c 9b                	jl     0x4022ea
  40234f:	ff 35 00 9e 40 00    	pushl  0x409e00
  402355:	ff 15 30 60 40 00    	call   *0x406030
  40235b:	5f                   	pop    %edi
  40235c:	5e                   	pop    %esi
  40235d:	5d                   	pop    %ebp
  40235e:	5b                   	pop    %ebx
  40235f:	83 c4 44             	add    $0x44,%esp
  402362:	c3                   	ret    
  402363:	56                   	push   %esi
  402364:	8b 74 24 08          	mov    0x8(%esp),%esi
  402368:	6a 00                	push   $0x0
  40236a:	83 26 00             	andl   $0x0,(%esi)
  40236d:	ff 15 40 60 40 00    	call   *0x406040
  402373:	66 81 38 4d 5a       	cmpw   $0x5a4d,(%eax)
  402378:	75 14                	jne    0x40238e
  40237a:	8b 48 3c             	mov    0x3c(%eax),%ecx
  40237d:	85 c9                	test   %ecx,%ecx
  40237f:	74 0d                	je     0x40238e
  402381:	03 c1                	add    %ecx,%eax
  402383:	8a 48 1a             	mov    0x1a(%eax),%cl
  402386:	88 0e                	mov    %cl,(%esi)
  402388:	8a 40 1b             	mov    0x1b(%eax),%al
  40238b:	88 46 01             	mov    %al,0x1(%esi)
  40238e:	5e                   	pop    %esi
  40238f:	c3                   	ret    
  402390:	55                   	push   %ebp
  402391:	8b ec                	mov    %esp,%ebp
  402393:	b8 2c 12 00 00       	mov    $0x122c,%eax
  402398:	e8 03 17 00 00       	call   0x403aa0
  40239d:	8d 85 68 ff ff ff    	lea    -0x98(%ebp),%eax
  4023a3:	53                   	push   %ebx
  4023a4:	50                   	push   %eax
  4023a5:	c7 85 68 ff ff ff 94 	movl   $0x94,-0x98(%ebp)
  4023ac:	00 00 00 
  4023af:	ff 15 48 60 40 00    	call   *0x406048
  4023b5:	85 c0                	test   %eax,%eax
  4023b7:	74 1a                	je     0x4023d3
  4023b9:	83 bd 78 ff ff ff 02 	cmpl   $0x2,-0x88(%ebp)
  4023c0:	75 11                	jne    0x4023d3
  4023c2:	83 bd 6c ff ff ff 05 	cmpl   $0x5,-0x94(%ebp)
  4023c9:	72 08                	jb     0x4023d3
  4023cb:	6a 01                	push   $0x1
  4023cd:	58                   	pop    %eax
  4023ce:	e9 02 01 00 00       	jmp    0x4024d5
  4023d3:	8d 85 d4 ed ff ff    	lea    -0x122c(%ebp),%eax
  4023d9:	68 90 10 00 00       	push   $0x1090
  4023de:	50                   	push   %eax
  4023df:	68 48 61 40 00       	push   $0x406148
  4023e4:	ff 15 44 60 40 00    	call   *0x406044
  4023ea:	85 c0                	test   %eax,%eax
  4023ec:	0f 84 d0 00 00 00    	je     0x4024c2
  4023f2:	33 db                	xor    %ebx,%ebx
  4023f4:	8d 8d d4 ed ff ff    	lea    -0x122c(%ebp),%ecx
  4023fa:	38 9d d4 ed ff ff    	cmp    %bl,-0x122c(%ebp)
  402400:	74 13                	je     0x402415
  402402:	8a 01                	mov    (%ecx),%al
  402404:	3c 61                	cmp    $0x61,%al
  402406:	7c 08                	jl     0x402410
  402408:	3c 7a                	cmp    $0x7a,%al
  40240a:	7f 04                	jg     0x402410
  40240c:	2c 20                	sub    $0x20,%al
  40240e:	88 01                	mov    %al,(%ecx)
  402410:	41                   	inc    %ecx
  402411:	38 19                	cmp    %bl,(%ecx)
  402413:	75 ed                	jne    0x402402
  402415:	8d 85 d4 ed ff ff    	lea    -0x122c(%ebp),%eax
  40241b:	6a 16                	push   $0x16
  40241d:	50                   	push   %eax
  40241e:	68 30 61 40 00       	push   $0x406130
  402423:	e8 38 16 00 00       	call   0x403a60
  402428:	83 c4 0c             	add    $0xc,%esp
  40242b:	85 c0                	test   %eax,%eax
  40242d:	75 08                	jne    0x402437
  40242f:	8d 85 d4 ed ff ff    	lea    -0x122c(%ebp),%eax
  402435:	eb 49                	jmp    0x402480
  402437:	8d 85 64 fe ff ff    	lea    -0x19c(%ebp),%eax
  40243d:	68 04 01 00 00       	push   $0x104
  402442:	50                   	push   %eax
  402443:	53                   	push   %ebx
  402444:	ff 15 18 60 40 00    	call   *0x406018
  40244a:	38 9d 64 fe ff ff    	cmp    %bl,-0x19c(%ebp)
  402450:	8d 8d 64 fe ff ff    	lea    -0x19c(%ebp),%ecx
  402456:	74 13                	je     0x40246b
  402458:	8a 01                	mov    (%ecx),%al
  40245a:	3c 61                	cmp    $0x61,%al
  40245c:	7c 08                	jl     0x402466
  40245e:	3c 7a                	cmp    $0x7a,%al
  402460:	7f 04                	jg     0x402466
  402462:	2c 20                	sub    $0x20,%al
  402464:	88 01                	mov    %al,(%ecx)
  402466:	41                   	inc    %ecx
  402467:	38 19                	cmp    %bl,(%ecx)
  402469:	75 ed                	jne    0x402458
  40246b:	8d 85 64 fe ff ff    	lea    -0x19c(%ebp),%eax
  402471:	50                   	push   %eax
  402472:	8d 85 d4 ed ff ff    	lea    -0x122c(%ebp),%eax
  402478:	50                   	push   %eax
  402479:	e8 62 15 00 00       	call   0x4039e0
  40247e:	59                   	pop    %ecx
  40247f:	59                   	pop    %ecx
  402480:	3b c3                	cmp    %ebx,%eax
  402482:	74 3e                	je     0x4024c2
  402484:	6a 2c                	push   $0x2c
  402486:	50                   	push   %eax
  402487:	e8 94 14 00 00       	call   0x403920
  40248c:	59                   	pop    %ecx
  40248d:	3b c3                	cmp    %ebx,%eax
  40248f:	59                   	pop    %ecx
  402490:	74 30                	je     0x4024c2
  402492:	40                   	inc    %eax
  402493:	8b c8                	mov    %eax,%ecx
  402495:	38 18                	cmp    %bl,(%eax)
  402497:	74 0e                	je     0x4024a7
  402499:	80 39 3b             	cmpb   $0x3b,(%ecx)
  40249c:	75 04                	jne    0x4024a2
  40249e:	88 19                	mov    %bl,(%ecx)
  4024a0:	eb 01                	jmp    0x4024a3
  4024a2:	41                   	inc    %ecx
  4024a3:	38 19                	cmp    %bl,(%ecx)
  4024a5:	75 f2                	jne    0x402499
  4024a7:	6a 0a                	push   $0xa
  4024a9:	53                   	push   %ebx
  4024aa:	50                   	push   %eax
  4024ab:	e8 35 12 00 00       	call   0x4036e5
  4024b0:	83 c4 0c             	add    $0xc,%esp
  4024b3:	83 f8 02             	cmp    $0x2,%eax
  4024b6:	74 1d                	je     0x4024d5
  4024b8:	83 f8 03             	cmp    $0x3,%eax
  4024bb:	74 18                	je     0x4024d5
  4024bd:	83 f8 01             	cmp    $0x1,%eax
  4024c0:	74 13                	je     0x4024d5
  4024c2:	8d 45 fc             	lea    -0x4(%ebp),%eax
  4024c5:	50                   	push   %eax
  4024c6:	e8 98 fe ff ff       	call   0x402363
  4024cb:	80 7d fc 06          	cmpb   $0x6,-0x4(%ebp)
  4024cf:	59                   	pop    %ecx
  4024d0:	1b c0                	sbb    %eax,%eax
  4024d2:	83 c0 03             	add    $0x3,%eax
  4024d5:	5b                   	pop    %ebx
  4024d6:	c9                   	leave  
  4024d7:	c3                   	ret    
  4024d8:	33 c0                	xor    %eax,%eax
  4024da:	6a 00                	push   $0x0
  4024dc:	39 44 24 08          	cmp    %eax,0x8(%esp)
  4024e0:	68 00 10 00 00       	push   $0x1000
  4024e5:	0f 94 c0             	sete   %al
  4024e8:	50                   	push   %eax
  4024e9:	ff 15 50 60 40 00    	call   *0x406050
  4024ef:	85 c0                	test   %eax,%eax
  4024f1:	a3 e8 9c 40 00       	mov    %eax,0x409ce8
  4024f6:	74 36                	je     0x40252e
  4024f8:	e8 93 fe ff ff       	call   0x402390
  4024fd:	83 f8 03             	cmp    $0x3,%eax
  402500:	a3 ec 9c 40 00       	mov    %eax,0x409cec
  402505:	75 0d                	jne    0x402514
  402507:	68 f8 03 00 00       	push   $0x3f8
  40250c:	e8 be 15 00 00       	call   0x403acf
  402511:	59                   	pop    %ecx
  402512:	eb 0a                	jmp    0x40251e
  402514:	83 f8 02             	cmp    $0x2,%eax
  402517:	75 18                	jne    0x402531
  402519:	e8 02 1e 00 00       	call   0x404320
  40251e:	85 c0                	test   %eax,%eax
  402520:	75 0f                	jne    0x402531
  402522:	ff 35 e8 9c 40 00    	pushl  0x409ce8
  402528:	ff 15 4c 60 40 00    	call   *0x40604c
  40252e:	33 c0                	xor    %eax,%eax
  402530:	c3                   	ret    
  402531:	6a 01                	push   $0x1
  402533:	58                   	pop    %eax
  402534:	c3                   	ret    
  402535:	cc                   	int3   
  402536:	cc                   	int3   
  402537:	cc                   	int3   
  402538:	55                   	push   %ebp
  402539:	8b ec                	mov    %esp,%ebp
  40253b:	53                   	push   %ebx
  40253c:	56                   	push   %esi
  40253d:	57                   	push   %edi
  40253e:	55                   	push   %ebp
  40253f:	6a 00                	push   $0x0
  402541:	6a 00                	push   $0x0
  402543:	68 50 25 40 00       	push   $0x402550
  402548:	ff 75 08             	pushl  0x8(%ebp)
  40254b:	e8 52 33 00 00       	call   0x4058a2
  402550:	5d                   	pop    %ebp
  402551:	5f                   	pop    %edi
  402552:	5e                   	pop    %esi
  402553:	5b                   	pop    %ebx
  402554:	8b e5                	mov    %ebp,%esp
  402556:	5d                   	pop    %ebp
  402557:	c3                   	ret    
  402558:	8b 4c 24 04          	mov    0x4(%esp),%ecx
  40255c:	f7 41 04 06 00 00 00 	testl  $0x6,0x4(%ecx)
  402563:	b8 01 00 00 00       	mov    $0x1,%eax
  402568:	74 0f                	je     0x402579
  40256a:	8b 44 24 08          	mov    0x8(%esp),%eax
  40256e:	8b 54 24 10          	mov    0x10(%esp),%edx
  402572:	89 02                	mov    %eax,(%edx)
  402574:	b8 03 00 00 00       	mov    $0x3,%eax
  402579:	c3                   	ret    
  40257a:	53                   	push   %ebx
  40257b:	56                   	push   %esi
  40257c:	57                   	push   %edi
  40257d:	8b 44 24 10          	mov    0x10(%esp),%eax
  402581:	50                   	push   %eax
  402582:	6a fe                	push   $0xfffffffe
  402584:	68 58 25 40 00       	push   $0x402558
  402589:	64 ff 35 00 00 00 00 	pushl  %fs:0x0
  402590:	64 89 25 00 00 00 00 	mov    %esp,%fs:0x0
  402597:	8b 44 24 20          	mov    0x20(%esp),%eax
  40259b:	8b 58 08             	mov    0x8(%eax),%ebx
  40259e:	8b 70 0c             	mov    0xc(%eax),%esi
  4025a1:	83 fe ff             	cmp    $0xffffffff,%esi
  4025a4:	74 2e                	je     0x4025d4
  4025a6:	3b 74 24 24          	cmp    0x24(%esp),%esi
  4025aa:	74 28                	je     0x4025d4
  4025ac:	8d 34 76             	lea    (%esi,%esi,2),%esi
  4025af:	8b 0c b3             	mov    (%ebx,%esi,4),%ecx
  4025b2:	89 4c 24 08          	mov    %ecx,0x8(%esp)
  4025b6:	89 48 0c             	mov    %ecx,0xc(%eax)
  4025b9:	83 7c b3 04 00       	cmpl   $0x0,0x4(%ebx,%esi,4)
  4025be:	75 12                	jne    0x4025d2
  4025c0:	68 01 01 00 00       	push   $0x101
  4025c5:	8b 44 b3 08          	mov    0x8(%ebx,%esi,4),%eax
  4025c9:	e8 40 00 00 00       	call   0x40260e
  4025ce:	ff 54 b3 08          	call   *0x8(%ebx,%esi,4)
  4025d2:	eb c3                	jmp    0x402597
  4025d4:	64 8f 05 00 00 00 00 	popl   %fs:0x0
  4025db:	83 c4 0c             	add    $0xc,%esp
  4025de:	5f                   	pop    %edi
  4025df:	5e                   	pop    %esi
  4025e0:	5b                   	pop    %ebx
  4025e1:	c3                   	ret    
  4025e2:	33 c0                	xor    %eax,%eax
  4025e4:	64 8b 0d 00 00 00 00 	mov    %fs:0x0,%ecx
  4025eb:	81 79 04 58 25 40 00 	cmpl   $0x402558,0x4(%ecx)
  4025f2:	75 10                	jne    0x402604
  4025f4:	8b 51 0c             	mov    0xc(%ecx),%edx
  4025f7:	8b 52 0c             	mov    0xc(%edx),%edx
  4025fa:	39 51 08             	cmp    %edx,0x8(%ecx)
  4025fd:	75 05                	jne    0x402604
  4025ff:	b8 01 00 00 00       	mov    $0x1,%eax
  402604:	c3                   	ret    
  402605:	53                   	push   %ebx
  402606:	51                   	push   %ecx
  402607:	bb 64 73 40 00       	mov    $0x407364,%ebx
  40260c:	eb 0a                	jmp    0x402618
  40260e:	53                   	push   %ebx
  40260f:	51                   	push   %ecx
  402610:	bb 64 73 40 00       	mov    $0x407364,%ebx
  402615:	8b 4d 08             	mov    0x8(%ebp),%ecx
  402618:	89 4b 08             	mov    %ecx,0x8(%ebx)
  40261b:	89 43 04             	mov    %eax,0x4(%ebx)
  40261e:	89 6b 0c             	mov    %ebp,0xc(%ebx)
  402621:	59                   	pop    %ecx
  402622:	5b                   	pop    %ebx
  402623:	c2 04 00             	ret    $0x4
  402626:	cc                   	int3   
  402627:	cc                   	int3   
  402628:	56                   	push   %esi
  402629:	43                   	inc    %ebx
  40262a:	32 30                	xor    (%eax),%dh
  40262c:	58                   	pop    %eax
  40262d:	43                   	inc    %ebx
  40262e:	30 30                	xor    %dh,(%eax)
  402630:	55                   	push   %ebp
  402631:	8b ec                	mov    %esp,%ebp
  402633:	83 ec 08             	sub    $0x8,%esp
  402636:	53                   	push   %ebx
  402637:	56                   	push   %esi
  402638:	57                   	push   %edi
  402639:	55                   	push   %ebp
  40263a:	fc                   	cld    
  40263b:	8b 5d 0c             	mov    0xc(%ebp),%ebx
  40263e:	8b 45 08             	mov    0x8(%ebp),%eax
  402641:	f7 40 04 06 00 00 00 	testl  $0x6,0x4(%eax)
  402648:	0f 85 82 00 00 00    	jne    0x4026d0
  40264e:	89 45 f8             	mov    %eax,-0x8(%ebp)
  402651:	8b 45 10             	mov    0x10(%ebp),%eax
  402654:	89 45 fc             	mov    %eax,-0x4(%ebp)
  402657:	8d 45 f8             	lea    -0x8(%ebp),%eax
  40265a:	89 43 fc             	mov    %eax,-0x4(%ebx)
  40265d:	8b 73 0c             	mov    0xc(%ebx),%esi
  402660:	8b 7b 08             	mov    0x8(%ebx),%edi
  402663:	83 fe ff             	cmp    $0xffffffff,%esi
  402666:	74 61                	je     0x4026c9
  402668:	8d 0c 76             	lea    (%esi,%esi,2),%ecx
  40266b:	83 7c 8f 04 00       	cmpl   $0x0,0x4(%edi,%ecx,4)
  402670:	74 45                	je     0x4026b7
  402672:	56                   	push   %esi
  402673:	55                   	push   %ebp
  402674:	8d 6b 10             	lea    0x10(%ebx),%ebp
  402677:	ff 54 8f 04          	call   *0x4(%edi,%ecx,4)
  40267b:	5d                   	pop    %ebp
  40267c:	5e                   	pop    %esi
  40267d:	8b 5d 0c             	mov    0xc(%ebp),%ebx
  402680:	0b c0                	or     %eax,%eax
  402682:	74 33                	je     0x4026b7
  402684:	78 3c                	js     0x4026c2
  402686:	8b 7b 08             	mov    0x8(%ebx),%edi
  402689:	53                   	push   %ebx
  40268a:	e8 a9 fe ff ff       	call   0x402538
  40268f:	83 c4 04             	add    $0x4,%esp
  402692:	8d 6b 10             	lea    0x10(%ebx),%ebp
  402695:	56                   	push   %esi
  402696:	53                   	push   %ebx
  402697:	e8 de fe ff ff       	call   0x40257a
  40269c:	83 c4 08             	add    $0x8,%esp
  40269f:	8d 0c 76             	lea    (%esi,%esi,2),%ecx
  4026a2:	6a 01                	push   $0x1
  4026a4:	8b 44 8f 08          	mov    0x8(%edi,%ecx,4),%eax
  4026a8:	e8 61 ff ff ff       	call   0x40260e
  4026ad:	8b 04 8f             	mov    (%edi,%ecx,4),%eax
  4026b0:	89 43 0c             	mov    %eax,0xc(%ebx)
  4026b3:	ff 54 8f 08          	call   *0x8(%edi,%ecx,4)
  4026b7:	8b 7b 08             	mov    0x8(%ebx),%edi
  4026ba:	8d 0c 76             	lea    (%esi,%esi,2),%ecx
  4026bd:	8b 34 8f             	mov    (%edi,%ecx,4),%esi
  4026c0:	eb a1                	jmp    0x402663
  4026c2:	b8 00 00 00 00       	mov    $0x0,%eax
  4026c7:	eb 1c                	jmp    0x4026e5
  4026c9:	b8 01 00 00 00       	mov    $0x1,%eax
  4026ce:	eb 15                	jmp    0x4026e5
  4026d0:	55                   	push   %ebp
  4026d1:	8d 6b 10             	lea    0x10(%ebx),%ebp
  4026d4:	6a ff                	push   $0xffffffff
  4026d6:	53                   	push   %ebx
  4026d7:	e8 9e fe ff ff       	call   0x40257a
  4026dc:	83 c4 08             	add    $0x8,%esp
  4026df:	5d                   	pop    %ebp
  4026e0:	b8 01 00 00 00       	mov    $0x1,%eax
  4026e5:	5d                   	pop    %ebp
  4026e6:	5f                   	pop    %edi
  4026e7:	5e                   	pop    %esi
  4026e8:	5b                   	pop    %ebx
  4026e9:	8b e5                	mov    %ebp,%esp
  4026eb:	5d                   	pop    %ebp
  4026ec:	c3                   	ret    
  4026ed:	55                   	push   %ebp
  4026ee:	8b 4c 24 08          	mov    0x8(%esp),%ecx
  4026f2:	8b 29                	mov    (%ecx),%ebp
  4026f4:	8b 41 1c             	mov    0x1c(%ecx),%eax
  4026f7:	50                   	push   %eax
  4026f8:	8b 41 18             	mov    0x18(%ecx),%eax
  4026fb:	50                   	push   %eax
  4026fc:	e8 79 fe ff ff       	call   0x40257a
  402701:	83 c4 08             	add    $0x8,%esp
  402704:	5d                   	pop    %ebp
  402705:	c2 04 00             	ret    $0x4
  402708:	a1 f0 98 40 00       	mov    0x4098f0,%eax
  40270d:	83 f8 01             	cmp    $0x1,%eax
  402710:	74 0d                	je     0x40271f
  402712:	85 c0                	test   %eax,%eax
  402714:	75 2a                	jne    0x402740
  402716:	83 3d 44 70 40 00 01 	cmpl   $0x1,0x407044
  40271d:	75 21                	jne    0x402740
  40271f:	68 fc 00 00 00       	push   $0xfc
  402724:	e8 18 00 00 00       	call   0x402741
  402729:	a1 58 9a 40 00       	mov    0x409a58,%eax
  40272e:	59                   	pop    %ecx
  40272f:	85 c0                	test   %eax,%eax
  402731:	74 02                	je     0x402735
  402733:	ff d0                	call   *%eax
  402735:	68 ff 00 00 00       	push   $0xff
  40273a:	e8 02 00 00 00       	call   0x402741
  40273f:	59                   	pop    %ecx
  402740:	c3                   	ret    
  402741:	55                   	push   %ebp
  402742:	8b ec                	mov    %esp,%ebp
  402744:	81 ec a4 01 00 00    	sub    $0x1a4,%esp
  40274a:	8b 55 08             	mov    0x8(%ebp),%edx
  40274d:	33 c9                	xor    %ecx,%ecx
  40274f:	b8 78 73 40 00       	mov    $0x407378,%eax
  402754:	3b 10                	cmp    (%eax),%edx
  402756:	74 0b                	je     0x402763
  402758:	83 c0 08             	add    $0x8,%eax
  40275b:	41                   	inc    %ecx
  40275c:	3d 08 74 40 00       	cmp    $0x407408,%eax
  402761:	7c f1                	jl     0x402754
  402763:	56                   	push   %esi
  402764:	8b f1                	mov    %ecx,%esi
  402766:	c1 e6 03             	shl    $0x3,%esi
  402769:	3b 96 78 73 40 00    	cmp    0x407378(%esi),%edx
  40276f:	0f 85 1c 01 00 00    	jne    0x402891
  402775:	a1 f0 98 40 00       	mov    0x4098f0,%eax
  40277a:	83 f8 01             	cmp    $0x1,%eax
  40277d:	0f 84 e8 00 00 00    	je     0x40286b
  402783:	85 c0                	test   %eax,%eax
  402785:	75 0d                	jne    0x402794
  402787:	83 3d 44 70 40 00 01 	cmpl   $0x1,0x407044
  40278e:	0f 84 d7 00 00 00    	je     0x40286b
  402794:	81 fa fc 00 00 00    	cmp    $0xfc,%edx
  40279a:	0f 84 f1 00 00 00    	je     0x402891
  4027a0:	8d 85 5c fe ff ff    	lea    -0x1a4(%ebp),%eax
  4027a6:	68 04 01 00 00       	push   $0x104
  4027ab:	50                   	push   %eax
  4027ac:	6a 00                	push   $0x0
  4027ae:	ff 15 18 60 40 00    	call   *0x406018
  4027b4:	85 c0                	test   %eax,%eax
  4027b6:	75 13                	jne    0x4027cb
  4027b8:	8d 85 5c fe ff ff    	lea    -0x1a4(%ebp),%eax
  4027be:	68 38 64 40 00       	push   $0x406438
  4027c3:	50                   	push   %eax
  4027c4:	e8 17 07 00 00       	call   0x402ee0
  4027c9:	59                   	pop    %ecx
  4027ca:	59                   	pop    %ecx
  4027cb:	8d 85 5c fe ff ff    	lea    -0x1a4(%ebp),%eax
  4027d1:	57                   	push   %edi
  4027d2:	50                   	push   %eax
  4027d3:	8d bd 5c fe ff ff    	lea    -0x1a4(%ebp),%edi
  4027d9:	e8 a2 02 00 00       	call   0x402a80
  4027de:	40                   	inc    %eax
  4027df:	59                   	pop    %ecx
  4027e0:	83 f8 3c             	cmp    $0x3c,%eax
  4027e3:	76 29                	jbe    0x40280e
  4027e5:	8d 85 5c fe ff ff    	lea    -0x1a4(%ebp),%eax
  4027eb:	50                   	push   %eax
  4027ec:	e8 8f 02 00 00       	call   0x402a80
  4027f1:	8b f8                	mov    %eax,%edi
  4027f3:	8d 85 5c fe ff ff    	lea    -0x1a4(%ebp),%eax
  4027f9:	83 e8 3b             	sub    $0x3b,%eax
  4027fc:	6a 03                	push   $0x3
  4027fe:	03 f8                	add    %eax,%edi
  402800:	68 34 64 40 00       	push   $0x406434
  402805:	57                   	push   %edi
  402806:	e8 c5 21 00 00       	call   0x4049d0
  40280b:	83 c4 10             	add    $0x10,%esp
  40280e:	8d 85 60 ff ff ff    	lea    -0xa0(%ebp),%eax
  402814:	68 18 64 40 00       	push   $0x406418
  402819:	50                   	push   %eax
  40281a:	e8 c1 06 00 00       	call   0x402ee0
  40281f:	8d 85 60 ff ff ff    	lea    -0xa0(%ebp),%eax
  402825:	57                   	push   %edi
  402826:	50                   	push   %eax
  402827:	e8 c4 06 00 00       	call   0x402ef0
  40282c:	8d 85 60 ff ff ff    	lea    -0xa0(%ebp),%eax
  402832:	68 14 64 40 00       	push   $0x406414
  402837:	50                   	push   %eax
  402838:	e8 b3 06 00 00       	call   0x402ef0
  40283d:	ff b6 7c 73 40 00    	pushl  0x40737c(%esi)
  402843:	8d 85 60 ff ff ff    	lea    -0xa0(%ebp),%eax
  402849:	50                   	push   %eax
  40284a:	e8 a1 06 00 00       	call   0x402ef0
  40284f:	68 10 20 01 00       	push   $0x12010
  402854:	8d 85 60 ff ff ff    	lea    -0xa0(%ebp),%eax
  40285a:	68 ec 63 40 00       	push   $0x4063ec
  40285f:	50                   	push   %eax
  402860:	e8 df 20 00 00       	call   0x404944
  402865:	83 c4 2c             	add    $0x2c,%esp
  402868:	5f                   	pop    %edi
  402869:	eb 26                	jmp    0x402891
  40286b:	8d 45 08             	lea    0x8(%ebp),%eax
  40286e:	8d b6 7c 73 40 00    	lea    0x40737c(%esi),%esi
  402874:	6a 00                	push   $0x0
  402876:	50                   	push   %eax
  402877:	ff 36                	pushl  (%esi)
  402879:	e8 02 02 00 00       	call   0x402a80
  40287e:	59                   	pop    %ecx
  40287f:	50                   	push   %eax
  402880:	ff 36                	pushl  (%esi)
  402882:	6a f4                	push   $0xfffffff4
  402884:	ff 15 34 60 40 00    	call   *0x406034
  40288a:	50                   	push   %eax
  40288b:	ff 15 60 60 40 00    	call   *0x406060
  402891:	5e                   	pop    %esi
  402892:	c9                   	leave  
  402893:	c3                   	ret    
  402894:	ff 35 70 9a 40 00    	pushl  0x409a70
  40289a:	ff 74 24 08          	pushl  0x8(%esp)
  40289e:	e8 03 00 00 00       	call   0x4028a6
  4028a3:	59                   	pop    %ecx
  4028a4:	59                   	pop    %ecx
  4028a5:	c3                   	ret    
  4028a6:	83 7c 24 04 e0       	cmpl   $0xffffffe0,0x4(%esp)
  4028ab:	77 22                	ja     0x4028cf
  4028ad:	ff 74 24 04          	pushl  0x4(%esp)
  4028b1:	e8 1c 00 00 00       	call   0x4028d2
  4028b6:	85 c0                	test   %eax,%eax
  4028b8:	59                   	pop    %ecx
  4028b9:	75 16                	jne    0x4028d1
  4028bb:	39 44 24 08          	cmp    %eax,0x8(%esp)
  4028bf:	74 10                	je     0x4028d1
  4028c1:	ff 74 24 04          	pushl  0x4(%esp)
  4028c5:	e8 04 22 00 00       	call   0x404ace
  4028ca:	85 c0                	test   %eax,%eax
  4028cc:	59                   	pop    %ecx
  4028cd:	75 de                	jne    0x4028ad
  4028cf:	33 c0                	xor    %eax,%eax
  4028d1:	c3                   	ret    
  4028d2:	a1 ec 9c 40 00       	mov    0x409cec,%eax
  4028d7:	56                   	push   %esi
  4028d8:	8b 74 24 08          	mov    0x8(%esp),%esi
  4028dc:	83 f8 03             	cmp    $0x3,%eax
  4028df:	75 15                	jne    0x4028f6
  4028e1:	3b 35 b8 9a 40 00    	cmp    0x409ab8,%esi
  4028e7:	77 3f                	ja     0x402928
  4028e9:	56                   	push   %esi
  4028ea:	e8 7c 15 00 00       	call   0x403e6b
  4028ef:	85 c0                	test   %eax,%eax
  4028f1:	59                   	pop    %ecx
  4028f2:	74 34                	je     0x402928
  4028f4:	5e                   	pop    %esi
  4028f5:	c3                   	ret    
  4028f6:	83 f8 02             	cmp    $0x2,%eax
  4028f9:	75 2d                	jne    0x402928
  4028fb:	8b 44 24 08          	mov    0x8(%esp),%eax
  4028ff:	85 c0                	test   %eax,%eax
  402901:	74 08                	je     0x40290b
  402903:	8d 70 0f             	lea    0xf(%eax),%esi
  402906:	83 e6 f0             	and    $0xfffffff0,%esi
  402909:	eb 03                	jmp    0x40290e
  40290b:	6a 10                	push   $0x10
  40290d:	5e                   	pop    %esi
  40290e:	3b 35 64 97 40 00    	cmp    0x409764,%esi
  402914:	77 1f                	ja     0x402935
  402916:	8b c6                	mov    %esi,%eax
  402918:	c1 e8 04             	shr    $0x4,%eax
  40291b:	50                   	push   %eax
  40291c:	e8 f7 1c 00 00       	call   0x404618
  402921:	85 c0                	test   %eax,%eax
  402923:	59                   	pop    %ecx
  402924:	75 1e                	jne    0x402944
  402926:	eb 0d                	jmp    0x402935
  402928:	85 f6                	test   %esi,%esi
  40292a:	75 03                	jne    0x40292f
  40292c:	6a 01                	push   $0x1
  40292e:	5e                   	pop    %esi
  40292f:	83 c6 0f             	add    $0xf,%esi
  402932:	83 e6 f0             	and    $0xfffffff0,%esi
  402935:	56                   	push   %esi
  402936:	6a 00                	push   $0x0
  402938:	ff 35 e8 9c 40 00    	pushl  0x409ce8
  40293e:	ff 15 64 60 40 00    	call   *0x406064
  402944:	5e                   	pop    %esi
  402945:	c3                   	ret    
  402946:	8b 44 24 04          	mov    0x4(%esp),%eax
  40294a:	3b 05 00 9e 40 00    	cmp    0x409e00,%eax
  402950:	72 03                	jb     0x402955
  402952:	33 c0                	xor    %eax,%eax
  402954:	c3                   	ret    
  402955:	8b c8                	mov    %eax,%ecx
  402957:	83 e0 1f             	and    $0x1f,%eax
  40295a:	c1 f9 05             	sar    $0x5,%ecx
  40295d:	8b 0c 8d 00 9d 40 00 	mov    0x409d00(,%ecx,4),%ecx
  402964:	8a 44 c1 04          	mov    0x4(%ecx,%eax,8),%al
  402968:	83 e0 40             	and    $0x40,%eax
  40296b:	c3                   	ret    
  40296c:	56                   	push   %esi
  40296d:	8b 74 24 08          	mov    0x8(%esp),%esi
  402971:	85 f6                	test   %esi,%esi
  402973:	75 09                	jne    0x40297e
  402975:	56                   	push   %esi
  402976:	e8 91 00 00 00       	call   0x402a0c
  40297b:	59                   	pop    %ecx
  40297c:	5e                   	pop    %esi
  40297d:	c3                   	ret    
  40297e:	56                   	push   %esi
  40297f:	e8 23 00 00 00       	call   0x4029a7
  402984:	85 c0                	test   %eax,%eax
  402986:	59                   	pop    %ecx
  402987:	74 05                	je     0x40298e
  402989:	83 c8 ff             	or     $0xffffffff,%eax
  40298c:	5e                   	pop    %esi
  40298d:	c3                   	ret    
  40298e:	f6 46 0d 40          	testb  $0x40,0xd(%esi)
  402992:	74 0f                	je     0x4029a3
  402994:	ff 76 10             	pushl  0x10(%esi)
  402997:	e8 4d 21 00 00       	call   0x404ae9
  40299c:	f7 d8                	neg    %eax
  40299e:	59                   	pop    %ecx
  40299f:	5e                   	pop    %esi
  4029a0:	1b c0                	sbb    %eax,%eax
  4029a2:	c3                   	ret    
  4029a3:	33 c0                	xor    %eax,%eax
  4029a5:	5e                   	pop    %esi
  4029a6:	c3                   	ret    
  4029a7:	53                   	push   %ebx
  4029a8:	56                   	push   %esi
  4029a9:	8b 74 24 0c          	mov    0xc(%esp),%esi
  4029ad:	33 db                	xor    %ebx,%ebx
  4029af:	57                   	push   %edi
  4029b0:	8b 46 0c             	mov    0xc(%esi),%eax
  4029b3:	8b c8                	mov    %eax,%ecx
  4029b5:	83 e1 03             	and    $0x3,%ecx
  4029b8:	80 f9 02             	cmp    $0x2,%cl
  4029bb:	75 37                	jne    0x4029f4
  4029bd:	66 a9 08 01          	test   $0x108,%ax
  4029c1:	74 31                	je     0x4029f4
  4029c3:	8b 46 08             	mov    0x8(%esi),%eax
  4029c6:	8b 3e                	mov    (%esi),%edi
  4029c8:	2b f8                	sub    %eax,%edi
  4029ca:	85 ff                	test   %edi,%edi
  4029cc:	7e 26                	jle    0x4029f4
  4029ce:	57                   	push   %edi
  4029cf:	50                   	push   %eax
  4029d0:	ff 76 10             	pushl  0x10(%esi)
  4029d3:	e8 68 21 00 00       	call   0x404b40
  4029d8:	83 c4 0c             	add    $0xc,%esp
  4029db:	3b c7                	cmp    %edi,%eax
  4029dd:	75 0e                	jne    0x4029ed
  4029df:	8b 46 0c             	mov    0xc(%esi),%eax
  4029e2:	a8 80                	test   $0x80,%al
  4029e4:	74 0e                	je     0x4029f4
  4029e6:	24 fd                	and    $0xfd,%al
  4029e8:	89 46 0c             	mov    %eax,0xc(%esi)
  4029eb:	eb 07                	jmp    0x4029f4
  4029ed:	83 4e 0c 20          	orl    $0x20,0xc(%esi)
  4029f1:	83 cb ff             	or     $0xffffffff,%ebx
  4029f4:	8b 46 08             	mov    0x8(%esi),%eax
  4029f7:	83 66 04 00          	andl   $0x0,0x4(%esi)
  4029fb:	89 06                	mov    %eax,(%esi)
  4029fd:	5f                   	pop    %edi
  4029fe:	8b c3                	mov    %ebx,%eax
  402a00:	5e                   	pop    %esi
  402a01:	5b                   	pop    %ebx
  402a02:	c3                   	ret    
  402a03:	6a 01                	push   $0x1
  402a05:	e8 02 00 00 00       	call   0x402a0c
  402a0a:	59                   	pop    %ecx
  402a0b:	c3                   	ret    
  402a0c:	53                   	push   %ebx
  402a0d:	56                   	push   %esi
  402a0e:	57                   	push   %edi
  402a0f:	33 f6                	xor    %esi,%esi
  402a11:	33 db                	xor    %ebx,%ebx
  402a13:	33 ff                	xor    %edi,%edi
  402a15:	39 35 20 ae 40 00    	cmp    %esi,0x40ae20
  402a1b:	7e 4d                	jle    0x402a6a
  402a1d:	a1 18 9e 40 00       	mov    0x409e18,%eax
  402a22:	8b 04 b0             	mov    (%eax,%esi,4),%eax
  402a25:	85 c0                	test   %eax,%eax
  402a27:	74 38                	je     0x402a61
  402a29:	8b 48 0c             	mov    0xc(%eax),%ecx
  402a2c:	f6 c1 83             	test   $0x83,%cl
  402a2f:	74 30                	je     0x402a61
  402a31:	83 7c 24 10 01       	cmpl   $0x1,0x10(%esp)
  402a36:	75 0f                	jne    0x402a47
  402a38:	50                   	push   %eax
  402a39:	e8 2e ff ff ff       	call   0x40296c
  402a3e:	83 f8 ff             	cmp    $0xffffffff,%eax
  402a41:	59                   	pop    %ecx
  402a42:	74 1d                	je     0x402a61
  402a44:	43                   	inc    %ebx
  402a45:	eb 1a                	jmp    0x402a61
  402a47:	83 7c 24 10 00       	cmpl   $0x0,0x10(%esp)
  402a4c:	75 13                	jne    0x402a61
  402a4e:	f6 c1 02             	test   $0x2,%cl
  402a51:	74 0e                	je     0x402a61
  402a53:	50                   	push   %eax
  402a54:	e8 13 ff ff ff       	call   0x40296c
  402a59:	83 f8 ff             	cmp    $0xffffffff,%eax
  402a5c:	59                   	pop    %ecx
  402a5d:	75 02                	jne    0x402a61
  402a5f:	0b f8                	or     %eax,%edi
  402a61:	46                   	inc    %esi
  402a62:	3b 35 20 ae 40 00    	cmp    0x40ae20,%esi
  402a68:	7c b3                	jl     0x402a1d
  402a6a:	83 7c 24 10 01       	cmpl   $0x1,0x10(%esp)
  402a6f:	8b c3                	mov    %ebx,%eax
  402a71:	74 02                	je     0x402a75
  402a73:	8b c7                	mov    %edi,%eax
  402a75:	5f                   	pop    %edi
  402a76:	5e                   	pop    %esi
  402a77:	5b                   	pop    %ebx
  402a78:	c3                   	ret    
  402a79:	cc                   	int3   
  402a7a:	cc                   	int3   
  402a7b:	cc                   	int3   
  402a7c:	cc                   	int3   
  402a7d:	cc                   	int3   
  402a7e:	cc                   	int3   
  402a7f:	cc                   	int3   
  402a80:	8b 4c 24 04          	mov    0x4(%esp),%ecx
  402a84:	f7 c1 03 00 00 00    	test   $0x3,%ecx
  402a8a:	74 14                	je     0x402aa0
  402a8c:	8a 01                	mov    (%ecx),%al
  402a8e:	41                   	inc    %ecx
  402a8f:	84 c0                	test   %al,%al
  402a91:	74 40                	je     0x402ad3
  402a93:	f7 c1 03 00 00 00    	test   $0x3,%ecx
  402a99:	75 f1                	jne    0x402a8c
  402a9b:	05 00 00 00 00       	add    $0x0,%eax
  402aa0:	8b 01                	mov    (%ecx),%eax
  402aa2:	ba ff fe fe 7e       	mov    $0x7efefeff,%edx
  402aa7:	03 d0                	add    %eax,%edx
  402aa9:	83 f0 ff             	xor    $0xffffffff,%eax
  402aac:	33 c2                	xor    %edx,%eax
  402aae:	83 c1 04             	add    $0x4,%ecx
  402ab1:	a9 00 01 01 81       	test   $0x81010100,%eax
  402ab6:	74 e8                	je     0x402aa0
  402ab8:	8b 41 fc             	mov    -0x4(%ecx),%eax
  402abb:	84 c0                	test   %al,%al
  402abd:	74 32                	je     0x402af1
  402abf:	84 e4                	test   %ah,%ah
  402ac1:	74 24                	je     0x402ae7
  402ac3:	a9 00 00 ff 00       	test   $0xff0000,%eax
  402ac8:	74 13                	je     0x402add
  402aca:	a9 00 00 00 ff       	test   $0xff000000,%eax
  402acf:	74 02                	je     0x402ad3
  402ad1:	eb cd                	jmp    0x402aa0
  402ad3:	8d 41 ff             	lea    -0x1(%ecx),%eax
  402ad6:	8b 4c 24 04          	mov    0x4(%esp),%ecx
  402ada:	2b c1                	sub    %ecx,%eax
  402adc:	c3                   	ret    
  402add:	8d 41 fe             	lea    -0x2(%ecx),%eax
  402ae0:	8b 4c 24 04          	mov    0x4(%esp),%ecx
  402ae4:	2b c1                	sub    %ecx,%eax
  402ae6:	c3                   	ret    
  402ae7:	8d 41 fd             	lea    -0x3(%ecx),%eax
  402aea:	8b 4c 24 04          	mov    0x4(%esp),%ecx
  402aee:	2b c1                	sub    %ecx,%eax
  402af0:	c3                   	ret    
  402af1:	8d 41 fc             	lea    -0x4(%ecx),%eax
  402af4:	8b 4c 24 04          	mov    0x4(%esp),%ecx
  402af8:	2b c1                	sub    %ecx,%eax
  402afa:	c3                   	ret    
  402afb:	55                   	push   %ebp
  402afc:	8b ec                	mov    %esp,%ebp
  402afe:	8b 45 08             	mov    0x8(%ebp),%eax
  402b01:	85 c0                	test   %eax,%eax
  402b03:	75 02                	jne    0x402b07
  402b05:	5d                   	pop    %ebp
  402b06:	c3                   	ret    
  402b07:	83 3d 80 9a 40 00 00 	cmpl   $0x0,0x409a80
  402b0e:	75 12                	jne    0x402b22
  402b10:	66 8b 4d 0c          	mov    0xc(%ebp),%cx
  402b14:	66 81 f9 ff 00       	cmp    $0xff,%cx
  402b19:	77 39                	ja     0x402b54
  402b1b:	6a 01                	push   $0x1
  402b1d:	88 08                	mov    %cl,(%eax)
  402b1f:	58                   	pop    %eax
  402b20:	5d                   	pop    %ebp
  402b21:	c3                   	ret    
  402b22:	8d 4d 08             	lea    0x8(%ebp),%ecx
  402b25:	83 65 08 00          	andl   $0x0,0x8(%ebp)
  402b29:	51                   	push   %ecx
  402b2a:	6a 00                	push   $0x0
  402b2c:	ff 35 70 97 40 00    	pushl  0x409770
  402b32:	50                   	push   %eax
  402b33:	8d 45 0c             	lea    0xc(%ebp),%eax
  402b36:	6a 01                	push   $0x1
  402b38:	50                   	push   %eax
  402b39:	68 20 02 00 00       	push   $0x220
  402b3e:	ff 35 90 9a 40 00    	pushl  0x409a90
  402b44:	ff 15 24 60 40 00    	call   *0x406024
  402b4a:	85 c0                	test   %eax,%eax
  402b4c:	74 06                	je     0x402b54
  402b4e:	83 7d 08 00          	cmpl   $0x0,0x8(%ebp)
  402b52:	74 0d                	je     0x402b61
  402b54:	c7 05 00 99 40 00 2a 	movl   $0x2a,0x409900
  402b5b:	00 00 00 
  402b5e:	83 c8 ff             	or     $0xffffffff,%eax
  402b61:	5d                   	pop    %ebp
  402b62:	c3                   	ret    
  402b63:	cc                   	int3   
  402b64:	cc                   	int3   
  402b65:	cc                   	int3   
  402b66:	cc                   	int3   
  402b67:	cc                   	int3   
  402b68:	cc                   	int3   
  402b69:	cc                   	int3   
  402b6a:	cc                   	int3   
  402b6b:	cc                   	int3   
  402b6c:	cc                   	int3   
  402b6d:	cc                   	int3   
  402b6e:	cc                   	int3   
  402b6f:	cc                   	int3   
  402b70:	53                   	push   %ebx
  402b71:	56                   	push   %esi
  402b72:	8b 44 24 18          	mov    0x18(%esp),%eax
  402b76:	0b c0                	or     %eax,%eax
  402b78:	75 18                	jne    0x402b92
  402b7a:	8b 4c 24 14          	mov    0x14(%esp),%ecx
  402b7e:	8b 44 24 10          	mov    0x10(%esp),%eax
  402b82:	33 d2                	xor    %edx,%edx
  402b84:	f7 f1                	div    %ecx
  402b86:	8b d8                	mov    %eax,%ebx
  402b88:	8b 44 24 0c          	mov    0xc(%esp),%eax
  402b8c:	f7 f1                	div    %ecx
  402b8e:	8b d3                	mov    %ebx,%edx
  402b90:	eb 41                	jmp    0x402bd3
  402b92:	8b c8                	mov    %eax,%ecx
  402b94:	8b 5c 24 14          	mov    0x14(%esp),%ebx
  402b98:	8b 54 24 10          	mov    0x10(%esp),%edx
  402b9c:	8b 44 24 0c          	mov    0xc(%esp),%eax
  402ba0:	d1 e9                	shr    %ecx
  402ba2:	d1 db                	rcr    %ebx
  402ba4:	d1 ea                	shr    %edx
  402ba6:	d1 d8                	rcr    %eax
  402ba8:	0b c9                	or     %ecx,%ecx
  402baa:	75 f4                	jne    0x402ba0
  402bac:	f7 f3                	div    %ebx
  402bae:	8b f0                	mov    %eax,%esi
  402bb0:	f7 64 24 18          	mull   0x18(%esp)
  402bb4:	8b c8                	mov    %eax,%ecx
  402bb6:	8b 44 24 14          	mov    0x14(%esp),%eax
  402bba:	f7 e6                	mul    %esi
  402bbc:	03 d1                	add    %ecx,%edx
  402bbe:	72 0e                	jb     0x402bce
  402bc0:	3b 54 24 10          	cmp    0x10(%esp),%edx
  402bc4:	77 08                	ja     0x402bce
  402bc6:	72 07                	jb     0x402bcf
  402bc8:	3b 44 24 0c          	cmp    0xc(%esp),%eax
  402bcc:	76 01                	jbe    0x402bcf
  402bce:	4e                   	dec    %esi
  402bcf:	33 d2                	xor    %edx,%edx
  402bd1:	8b c6                	mov    %esi,%eax
  402bd3:	5e                   	pop    %esi
  402bd4:	5b                   	pop    %ebx
  402bd5:	c2 10 00             	ret    $0x10
  402bd8:	cc                   	int3   
  402bd9:	cc                   	int3   
  402bda:	cc                   	int3   
  402bdb:	cc                   	int3   
  402bdc:	cc                   	int3   
  402bdd:	cc                   	int3   
  402bde:	cc                   	int3   
  402bdf:	cc                   	int3   
  402be0:	53                   	push   %ebx
  402be1:	8b 44 24 14          	mov    0x14(%esp),%eax
  402be5:	0b c0                	or     %eax,%eax
  402be7:	75 18                	jne    0x402c01
  402be9:	8b 4c 24 10          	mov    0x10(%esp),%ecx
  402bed:	8b 44 24 0c          	mov    0xc(%esp),%eax
  402bf1:	33 d2                	xor    %edx,%edx
  402bf3:	f7 f1                	div    %ecx
  402bf5:	8b 44 24 08          	mov    0x8(%esp),%eax
  402bf9:	f7 f1                	div    %ecx
  402bfb:	8b c2                	mov    %edx,%eax
  402bfd:	33 d2                	xor    %edx,%edx
  402bff:	eb 50                	jmp    0x402c51
  402c01:	8b c8                	mov    %eax,%ecx
  402c03:	8b 5c 24 10          	mov    0x10(%esp),%ebx
  402c07:	8b 54 24 0c          	mov    0xc(%esp),%edx
  402c0b:	8b 44 24 08          	mov    0x8(%esp),%eax
  402c0f:	d1 e9                	shr    %ecx
  402c11:	d1 db                	rcr    %ebx
  402c13:	d1 ea                	shr    %edx
  402c15:	d1 d8                	rcr    %eax
  402c17:	0b c9                	or     %ecx,%ecx
  402c19:	75 f4                	jne    0x402c0f
  402c1b:	f7 f3                	div    %ebx
  402c1d:	8b c8                	mov    %eax,%ecx
  402c1f:	f7 64 24 14          	mull   0x14(%esp)
  402c23:	91                   	xchg   %eax,%ecx
  402c24:	f7 64 24 10          	mull   0x10(%esp)
  402c28:	03 d1                	add    %ecx,%edx
  402c2a:	72 0e                	jb     0x402c3a
  402c2c:	3b 54 24 0c          	cmp    0xc(%esp),%edx
  402c30:	77 08                	ja     0x402c3a
  402c32:	72 0e                	jb     0x402c42
  402c34:	3b 44 24 08          	cmp    0x8(%esp),%eax
  402c38:	76 08                	jbe    0x402c42
  402c3a:	2b 44 24 10          	sub    0x10(%esp),%eax
  402c3e:	1b 54 24 14          	sbb    0x14(%esp),%edx
  402c42:	2b 44 24 08          	sub    0x8(%esp),%eax
  402c46:	1b 54 24 0c          	sbb    0xc(%esp),%edx
  402c4a:	f7 da                	neg    %edx
  402c4c:	f7 d8                	neg    %eax
  402c4e:	83 da 00             	sbb    $0x0,%edx
  402c51:	5b                   	pop    %ebx
  402c52:	c2 10 00             	ret    $0x10
  402c55:	55                   	push   %ebp
  402c56:	8b ec                	mov    %esp,%ebp
  402c58:	53                   	push   %ebx
  402c59:	56                   	push   %esi
  402c5a:	8b 75 0c             	mov    0xc(%ebp),%esi
  402c5d:	8b 46 0c             	mov    0xc(%esi),%eax
  402c60:	8b 5e 10             	mov    0x10(%esi),%ebx
  402c63:	a8 82                	test   $0x82,%al
  402c65:	0f 84 f3 00 00 00    	je     0x402d5e
  402c6b:	a8 40                	test   $0x40,%al
  402c6d:	0f 85 eb 00 00 00    	jne    0x402d5e
  402c73:	a8 01                	test   $0x1,%al
  402c75:	74 16                	je     0x402c8d
  402c77:	83 66 04 00          	andl   $0x0,0x4(%esi)
  402c7b:	a8 10                	test   $0x10,%al
  402c7d:	0f 84 db 00 00 00    	je     0x402d5e
  402c83:	8b 4e 08             	mov    0x8(%esi),%ecx
  402c86:	24 fe                	and    $0xfe,%al
  402c88:	89 0e                	mov    %ecx,(%esi)
  402c8a:	89 46 0c             	mov    %eax,0xc(%esi)
  402c8d:	8b 46 0c             	mov    0xc(%esi),%eax
  402c90:	83 66 04 00          	andl   $0x0,0x4(%esi)
  402c94:	83 65 0c 00          	andl   $0x0,0xc(%ebp)
  402c98:	24 ef                	and    $0xef,%al
  402c9a:	0c 02                	or     $0x2,%al
  402c9c:	66 a9 0c 01          	test   $0x10c,%ax
  402ca0:	89 46 0c             	mov    %eax,0xc(%esi)
  402ca3:	75 22                	jne    0x402cc7
  402ca5:	81 fe 70 70 40 00    	cmp    $0x407070,%esi
  402cab:	74 08                	je     0x402cb5
  402cad:	81 fe 90 70 40 00    	cmp    $0x407090,%esi
  402cb3:	75 0b                	jne    0x402cc0
  402cb5:	53                   	push   %ebx
  402cb6:	e8 8b fc ff ff       	call   0x402946
  402cbb:	85 c0                	test   %eax,%eax
  402cbd:	59                   	pop    %ecx
  402cbe:	75 07                	jne    0x402cc7
  402cc0:	56                   	push   %esi
  402cc1:	e8 ca 20 00 00       	call   0x404d90
  402cc6:	59                   	pop    %ecx
  402cc7:	66 f7 46 0c 08 01    	testw  $0x108,0xc(%esi)
  402ccd:	57                   	push   %edi
  402cce:	74 64                	je     0x402d34
  402cd0:	8b 46 08             	mov    0x8(%esi),%eax
  402cd3:	8b 3e                	mov    (%esi),%edi
  402cd5:	2b f8                	sub    %eax,%edi
  402cd7:	8d 48 01             	lea    0x1(%eax),%ecx
  402cda:	89 0e                	mov    %ecx,(%esi)
  402cdc:	8b 4e 18             	mov    0x18(%esi),%ecx
  402cdf:	49                   	dec    %ecx
  402ce0:	85 ff                	test   %edi,%edi
  402ce2:	89 4e 04             	mov    %ecx,0x4(%esi)
  402ce5:	7e 10                	jle    0x402cf7
  402ce7:	57                   	push   %edi
  402ce8:	50                   	push   %eax
  402ce9:	53                   	push   %ebx
  402cea:	e8 51 1e 00 00       	call   0x404b40
  402cef:	83 c4 0c             	add    $0xc,%esp
  402cf2:	89 45 0c             	mov    %eax,0xc(%ebp)
  402cf5:	eb 33                	jmp    0x402d2a
  402cf7:	83 fb ff             	cmp    $0xffffffff,%ebx
  402cfa:	74 16                	je     0x402d12
  402cfc:	8b c3                	mov    %ebx,%eax
  402cfe:	8b cb                	mov    %ebx,%ecx
  402d00:	c1 f8 05             	sar    $0x5,%eax
  402d03:	83 e1 1f             	and    $0x1f,%ecx
  402d06:	8b 04 85 00 9d 40 00 	mov    0x409d00(,%eax,4),%eax
  402d0d:	8d 04 c8             	lea    (%eax,%ecx,8),%eax
  402d10:	eb 05                	jmp    0x402d17
  402d12:	b8 58 73 40 00       	mov    $0x407358,%eax
  402d17:	f6 40 04 20          	testb  $0x20,0x4(%eax)
  402d1b:	74 0d                	je     0x402d2a
  402d1d:	6a 02                	push   $0x2
  402d1f:	6a 00                	push   $0x0
  402d21:	53                   	push   %ebx
  402d22:	e8 cf 1f 00 00       	call   0x404cf6
  402d27:	83 c4 0c             	add    $0xc,%esp
  402d2a:	8b 46 08             	mov    0x8(%esi),%eax
  402d2d:	8a 4d 08             	mov    0x8(%ebp),%cl
  402d30:	88 08                	mov    %cl,(%eax)
  402d32:	eb 14                	jmp    0x402d48
  402d34:	6a 01                	push   $0x1
  402d36:	8d 45 08             	lea    0x8(%ebp),%eax
  402d39:	5f                   	pop    %edi
  402d3a:	57                   	push   %edi
  402d3b:	50                   	push   %eax
  402d3c:	53                   	push   %ebx
  402d3d:	e8 fe 1d 00 00       	call   0x404b40
  402d42:	83 c4 0c             	add    $0xc,%esp
  402d45:	89 45 0c             	mov    %eax,0xc(%ebp)
  402d48:	39 7d 0c             	cmp    %edi,0xc(%ebp)
  402d4b:	5f                   	pop    %edi
  402d4c:	74 06                	je     0x402d54
  402d4e:	83 4e 0c 20          	orl    $0x20,0xc(%esi)
  402d52:	eb 0f                	jmp    0x402d63
  402d54:	8b 45 08             	mov    0x8(%ebp),%eax
  402d57:	25 ff 00 00 00       	and    $0xff,%eax
  402d5c:	eb 08                	jmp    0x402d66
  402d5e:	0c 20                	or     $0x20,%al
  402d60:	89 46 0c             	mov    %eax,0xc(%esi)
  402d63:	83 c8 ff             	or     $0xffffffff,%eax
  402d66:	5e                   	pop    %esi
  402d67:	5b                   	pop    %ebx
  402d68:	5d                   	pop    %ebp
  402d69:	c3                   	ret    
  402d6a:	55                   	push   %ebp
  402d6b:	8b ec                	mov    %esp,%ebp
  402d6d:	56                   	push   %esi
  402d6e:	8b 75 08             	mov    0x8(%ebp),%esi
  402d71:	0f af 75 0c          	imul   0xc(%ebp),%esi
  402d75:	83 fe e0             	cmp    $0xffffffe0,%esi
  402d78:	57                   	push   %edi
  402d79:	89 75 08             	mov    %esi,0x8(%ebp)
  402d7c:	77 0d                	ja     0x402d8b
  402d7e:	85 f6                	test   %esi,%esi
  402d80:	75 03                	jne    0x402d85
  402d82:	6a 01                	push   $0x1
  402d84:	5e                   	pop    %esi
  402d85:	83 c6 0f             	add    $0xf,%esi
  402d88:	83 e6 f0             	and    $0xfffffff0,%esi
  402d8b:	33 ff                	xor    %edi,%edi
  402d8d:	83 fe e0             	cmp    $0xffffffe0,%esi
  402d90:	77 58                	ja     0x402dea
  402d92:	a1 ec 9c 40 00       	mov    0x409cec,%eax
  402d97:	83 f8 03             	cmp    $0x3,%eax
  402d9a:	75 1a                	jne    0x402db6
  402d9c:	8b 45 08             	mov    0x8(%ebp),%eax
  402d9f:	3b 05 b8 9a 40 00    	cmp    0x409ab8,%eax
  402da5:	77 2e                	ja     0x402dd5
  402da7:	50                   	push   %eax
  402da8:	e8 be 10 00 00       	call   0x403e6b
  402dad:	8b f8                	mov    %eax,%edi
  402daf:	59                   	pop    %ecx
  402db0:	85 ff                	test   %edi,%edi
  402db2:	75 4c                	jne    0x402e00
  402db4:	eb 1f                	jmp    0x402dd5
  402db6:	83 f8 02             	cmp    $0x2,%eax
  402db9:	75 1a                	jne    0x402dd5
  402dbb:	3b 35 64 97 40 00    	cmp    0x409764,%esi
  402dc1:	77 12                	ja     0x402dd5
  402dc3:	8b c6                	mov    %esi,%eax
  402dc5:	c1 e8 04             	shr    $0x4,%eax
  402dc8:	50                   	push   %eax
  402dc9:	e8 4a 18 00 00       	call   0x404618
  402dce:	8b f8                	mov    %eax,%edi
  402dd0:	59                   	pop    %ecx
  402dd1:	85 ff                	test   %edi,%edi
  402dd3:	75 3f                	jne    0x402e14
  402dd5:	56                   	push   %esi
  402dd6:	6a 08                	push   $0x8
  402dd8:	ff 35 e8 9c 40 00    	pushl  0x409ce8
  402dde:	ff 15 64 60 40 00    	call   *0x406064
  402de4:	8b f8                	mov    %eax,%edi
  402de6:	85 ff                	test   %edi,%edi
  402de8:	75 24                	jne    0x402e0e
  402dea:	83 3d 70 9a 40 00 00 	cmpl   $0x0,0x409a70
  402df1:	74 1b                	je     0x402e0e
  402df3:	56                   	push   %esi
  402df4:	e8 d5 1c 00 00       	call   0x404ace
  402df9:	85 c0                	test   %eax,%eax
  402dfb:	59                   	pop    %ecx
  402dfc:	74 19                	je     0x402e17
  402dfe:	eb 8b                	jmp    0x402d8b
  402e00:	ff 75 08             	pushl  0x8(%ebp)
  402e03:	6a 00                	push   $0x0
  402e05:	57                   	push   %edi
  402e06:	e8 d5 1f 00 00       	call   0x404de0
  402e0b:	83 c4 0c             	add    $0xc,%esp
  402e0e:	8b c7                	mov    %edi,%eax
  402e10:	5f                   	pop    %edi
  402e11:	5e                   	pop    %esi
  402e12:	5d                   	pop    %ebp
  402e13:	c3                   	ret    
  402e14:	56                   	push   %esi
  402e15:	eb ec                	jmp    0x402e03
  402e17:	33 c0                	xor    %eax,%eax
  402e19:	eb f5                	jmp    0x402e10
  402e1b:	56                   	push   %esi
  402e1c:	57                   	push   %edi
  402e1d:	6a 03                	push   $0x3
  402e1f:	33 ff                	xor    %edi,%edi
  402e21:	5e                   	pop    %esi
  402e22:	39 35 20 ae 40 00    	cmp    %esi,0x40ae20
  402e28:	7e 44                	jle    0x402e6e
  402e2a:	a1 18 9e 40 00       	mov    0x409e18,%eax
  402e2f:	8b 04 b0             	mov    (%eax,%esi,4),%eax
  402e32:	85 c0                	test   %eax,%eax
  402e34:	74 2f                	je     0x402e65
  402e36:	f6 40 0c 83          	testb  $0x83,0xc(%eax)
  402e3a:	74 0d                	je     0x402e49
  402e3c:	50                   	push   %eax
  402e3d:	e8 f6 1f 00 00       	call   0x404e38
  402e42:	83 f8 ff             	cmp    $0xffffffff,%eax
  402e45:	59                   	pop    %ecx
  402e46:	74 01                	je     0x402e49
  402e48:	47                   	inc    %edi
  402e49:	83 fe 14             	cmp    $0x14,%esi
  402e4c:	7c 17                	jl     0x402e65
  402e4e:	a1 18 9e 40 00       	mov    0x409e18,%eax
  402e53:	ff 34 b0             	pushl  (%eax,%esi,4)
  402e56:	e8 18 00 00 00       	call   0x402e73
  402e5b:	a1 18 9e 40 00       	mov    0x409e18,%eax
  402e60:	59                   	pop    %ecx
  402e61:	83 24 b0 00          	andl   $0x0,(%eax,%esi,4)
  402e65:	46                   	inc    %esi
  402e66:	3b 35 20 ae 40 00    	cmp    0x40ae20,%esi
  402e6c:	7c bc                	jl     0x402e2a
  402e6e:	8b c7                	mov    %edi,%eax
  402e70:	5f                   	pop    %edi
  402e71:	5e                   	pop    %esi
  402e72:	c3                   	ret    
  402e73:	55                   	push   %ebp
  402e74:	8b ec                	mov    %esp,%ebp
  402e76:	51                   	push   %ecx
  402e77:	56                   	push   %esi
  402e78:	8b 75 08             	mov    0x8(%ebp),%esi
  402e7b:	85 f6                	test   %esi,%esi
  402e7d:	74 5a                	je     0x402ed9
  402e7f:	a1 ec 9c 40 00       	mov    0x409cec,%eax
  402e84:	83 f8 03             	cmp    $0x3,%eax
  402e87:	75 16                	jne    0x402e9f
  402e89:	56                   	push   %esi
  402e8a:	e8 88 0c 00 00       	call   0x403b17
  402e8f:	59                   	pop    %ecx
  402e90:	85 c0                	test   %eax,%eax
  402e92:	56                   	push   %esi
  402e93:	74 36                	je     0x402ecb
  402e95:	50                   	push   %eax
  402e96:	e8 a7 0c 00 00       	call   0x403b42
  402e9b:	59                   	pop    %ecx
  402e9c:	59                   	pop    %ecx
  402e9d:	eb 3a                	jmp    0x402ed9
  402e9f:	83 f8 02             	cmp    $0x2,%eax
  402ea2:	75 26                	jne    0x402eca
  402ea4:	8d 45 08             	lea    0x8(%ebp),%eax
  402ea7:	50                   	push   %eax
  402ea8:	8d 45 fc             	lea    -0x4(%ebp),%eax
  402eab:	50                   	push   %eax
  402eac:	56                   	push   %esi
  402ead:	e8 ca 16 00 00       	call   0x40457c
  402eb2:	83 c4 0c             	add    $0xc,%esp
  402eb5:	85 c0                	test   %eax,%eax
  402eb7:	74 11                	je     0x402eca
  402eb9:	50                   	push   %eax
  402eba:	ff 75 08             	pushl  0x8(%ebp)
  402ebd:	ff 75 fc             	pushl  -0x4(%ebp)
  402ec0:	e8 0e 17 00 00       	call   0x4045d3
  402ec5:	83 c4 0c             	add    $0xc,%esp
  402ec8:	eb 0f                	jmp    0x402ed9
  402eca:	56                   	push   %esi
  402ecb:	6a 00                	push   $0x0
  402ecd:	ff 35 e8 9c 40 00    	pushl  0x409ce8
  402ed3:	ff 15 58 60 40 00    	call   *0x406058
  402ed9:	5e                   	pop    %esi
  402eda:	c9                   	leave  
  402edb:	c3                   	ret    
  402edc:	cc                   	int3   
  402edd:	cc                   	int3   
  402ede:	cc                   	int3   
  402edf:	cc                   	int3   
  402ee0:	57                   	push   %edi
  402ee1:	8b 7c 24 08          	mov    0x8(%esp),%edi
  402ee5:	eb 6a                	jmp    0x402f51
  402ee7:	8d a4 24 00 00 00 00 	lea    0x0(%esp),%esp
  402eee:	8b ff                	mov    %edi,%edi
  402ef0:	8b 4c 24 04          	mov    0x4(%esp),%ecx
  402ef4:	57                   	push   %edi
  402ef5:	f7 c1 03 00 00 00    	test   $0x3,%ecx
  402efb:	74 0f                	je     0x402f0c
  402efd:	8a 01                	mov    (%ecx),%al
  402eff:	41                   	inc    %ecx
  402f00:	84 c0                	test   %al,%al
  402f02:	74 3b                	je     0x402f3f
  402f04:	f7 c1 03 00 00 00    	test   $0x3,%ecx
  402f0a:	75 f1                	jne    0x402efd
  402f0c:	8b 01                	mov    (%ecx),%eax
  402f0e:	ba ff fe fe 7e       	mov    $0x7efefeff,%edx
  402f13:	03 d0                	add    %eax,%edx
  402f15:	83 f0 ff             	xor    $0xffffffff,%eax
  402f18:	33 c2                	xor    %edx,%eax
  402f1a:	83 c1 04             	add    $0x4,%ecx
  402f1d:	a9 00 01 01 81       	test   $0x81010100,%eax
  402f22:	74 e8                	je     0x402f0c
  402f24:	8b 41 fc             	mov    -0x4(%ecx),%eax
  402f27:	84 c0                	test   %al,%al
  402f29:	74 23                	je     0x402f4e
  402f2b:	84 e4                	test   %ah,%ah
  402f2d:	74 1a                	je     0x402f49
  402f2f:	a9 00 00 ff 00       	test   $0xff0000,%eax
  402f34:	74 0e                	je     0x402f44
  402f36:	a9 00 00 00 ff       	test   $0xff000000,%eax
  402f3b:	74 02                	je     0x402f3f
  402f3d:	eb cd                	jmp    0x402f0c
  402f3f:	8d 79 ff             	lea    -0x1(%ecx),%edi
  402f42:	eb 0d                	jmp    0x402f51
  402f44:	8d 79 fe             	lea    -0x2(%ecx),%edi
  402f47:	eb 08                	jmp    0x402f51
  402f49:	8d 79 fd             	lea    -0x3(%ecx),%edi
  402f4c:	eb 03                	jmp    0x402f51
  402f4e:	8d 79 fc             	lea    -0x4(%ecx),%edi
  402f51:	8b 4c 24 0c          	mov    0xc(%esp),%ecx
  402f55:	f7 c1 03 00 00 00    	test   $0x3,%ecx
  402f5b:	74 19                	je     0x402f76
  402f5d:	8a 11                	mov    (%ecx),%dl
  402f5f:	41                   	inc    %ecx
  402f60:	84 d2                	test   %dl,%dl
  402f62:	74 64                	je     0x402fc8
  402f64:	88 17                	mov    %dl,(%edi)
  402f66:	47                   	inc    %edi
  402f67:	f7 c1 03 00 00 00    	test   $0x3,%ecx
  402f6d:	75 ee                	jne    0x402f5d
  402f6f:	eb 05                	jmp    0x402f76
  402f71:	89 17                	mov    %edx,(%edi)
  402f73:	83 c7 04             	add    $0x4,%edi
  402f76:	ba ff fe fe 7e       	mov    $0x7efefeff,%edx
  402f7b:	8b 01                	mov    (%ecx),%eax
  402f7d:	03 d0                	add    %eax,%edx
  402f7f:	83 f0 ff             	xor    $0xffffffff,%eax
  402f82:	33 c2                	xor    %edx,%eax
  402f84:	8b 11                	mov    (%ecx),%edx
  402f86:	83 c1 04             	add    $0x4,%ecx
  402f89:	a9 00 01 01 81       	test   $0x81010100,%eax
  402f8e:	74 e1                	je     0x402f71
  402f90:	84 d2                	test   %dl,%dl
  402f92:	74 34                	je     0x402fc8
  402f94:	84 f6                	test   %dh,%dh
  402f96:	74 27                	je     0x402fbf
  402f98:	f7 c2 00 00 ff 00    	test   $0xff0000,%edx
  402f9e:	74 12                	je     0x402fb2
  402fa0:	f7 c2 00 00 00 ff    	test   $0xff000000,%edx
  402fa6:	74 02                	je     0x402faa
  402fa8:	eb c7                	jmp    0x402f71
  402faa:	89 17                	mov    %edx,(%edi)
  402fac:	8b 44 24 08          	mov    0x8(%esp),%eax
  402fb0:	5f                   	pop    %edi
  402fb1:	c3                   	ret    
  402fb2:	66 89 17             	mov    %dx,(%edi)
  402fb5:	8b 44 24 08          	mov    0x8(%esp),%eax
  402fb9:	c6 47 02 00          	movb   $0x0,0x2(%edi)
  402fbd:	5f                   	pop    %edi
  402fbe:	c3                   	ret    
  402fbf:	66 89 17             	mov    %dx,(%edi)
  402fc2:	8b 44 24 08          	mov    0x8(%esp),%eax
  402fc6:	5f                   	pop    %edi
  402fc7:	c3                   	ret    
  402fc8:	88 17                	mov    %dl,(%edi)
  402fca:	8b 44 24 08          	mov    0x8(%esp),%eax
  402fce:	5f                   	pop    %edi
  402fcf:	c3                   	ret    
  402fd0:	55                   	push   %ebp
  402fd1:	8b ec                	mov    %esp,%ebp
  402fd3:	83 ec 18             	sub    $0x18,%esp
  402fd6:	53                   	push   %ebx
  402fd7:	56                   	push   %esi
  402fd8:	57                   	push   %edi
  402fd9:	ff 75 08             	pushl  0x8(%ebp)
  402fdc:	e8 88 01 00 00       	call   0x403169
  402fe1:	8b f0                	mov    %eax,%esi
  402fe3:	59                   	pop    %ecx
  402fe4:	3b 35 bc 9a 40 00    	cmp    0x409abc,%esi
  402fea:	89 75 08             	mov    %esi,0x8(%ebp)
  402fed:	0f 84 6a 01 00 00    	je     0x40315d
  402ff3:	33 db                	xor    %ebx,%ebx
  402ff5:	3b f3                	cmp    %ebx,%esi
  402ff7:	0f 84 56 01 00 00    	je     0x403153
  402ffd:	33 d2                	xor    %edx,%edx
  402fff:	b8 48 76 40 00       	mov    $0x407648,%eax
  403004:	39 30                	cmp    %esi,(%eax)
  403006:	74 72                	je     0x40307a
  403008:	83 c0 30             	add    $0x30,%eax
  40300b:	42                   	inc    %edx
  40300c:	3d 38 77 40 00       	cmp    $0x407738,%eax
  403011:	7c f1                	jl     0x403004
  403013:	8d 45 e8             	lea    -0x18(%ebp),%eax
  403016:	50                   	push   %eax
  403017:	56                   	push   %esi
  403018:	ff 15 68 60 40 00    	call   *0x406068
  40301e:	83 f8 01             	cmp    $0x1,%eax
  403021:	0f 85 24 01 00 00    	jne    0x40314b
  403027:	6a 40                	push   $0x40
  403029:	33 c0                	xor    %eax,%eax
  40302b:	59                   	pop    %ecx
  40302c:	bf e0 9b 40 00       	mov    $0x409be0,%edi
  403031:	83 7d e8 01          	cmpl   $0x1,-0x18(%ebp)
  403035:	89 35 bc 9a 40 00    	mov    %esi,0x409abc
  40303b:	f3 ab                	rep stos %eax,%es:(%edi)
  40303d:	aa                   	stos   %al,%es:(%edi)
  40303e:	89 1d e4 9c 40 00    	mov    %ebx,0x409ce4
  403044:	0f 86 ef 00 00 00    	jbe    0x403139
  40304a:	80 7d ee 00          	cmpb   $0x0,-0x12(%ebp)
  40304e:	0f 84 bb 00 00 00    	je     0x40310f
  403054:	8d 4d ef             	lea    -0x11(%ebp),%ecx
  403057:	8a 11                	mov    (%ecx),%dl
  403059:	84 d2                	test   %dl,%dl
  40305b:	0f 84 ae 00 00 00    	je     0x40310f
  403061:	0f b6 41 ff          	movzbl -0x1(%ecx),%eax
  403065:	0f b6 d2             	movzbl %dl,%edx
  403068:	3b c2                	cmp    %edx,%eax
  40306a:	0f 87 93 00 00 00    	ja     0x403103
  403070:	80 88 e1 9b 40 00 04 	orb    $0x4,0x409be1(%eax)
  403077:	40                   	inc    %eax
  403078:	eb ee                	jmp    0x403068
  40307a:	6a 40                	push   $0x40
  40307c:	33 c0                	xor    %eax,%eax
  40307e:	59                   	pop    %ecx
  40307f:	bf e0 9b 40 00       	mov    $0x409be0,%edi
  403084:	f3 ab                	rep stos %eax,%es:(%edi)
  403086:	8d 34 52             	lea    (%edx,%edx,2),%esi
  403089:	89 5d fc             	mov    %ebx,-0x4(%ebp)
  40308c:	c1 e6 04             	shl    $0x4,%esi
  40308f:	aa                   	stos   %al,%es:(%edi)
  403090:	8d 9e 58 76 40 00    	lea    0x407658(%esi),%ebx
  403096:	80 3b 00             	cmpb   $0x0,(%ebx)
  403099:	8b cb                	mov    %ebx,%ecx
  40309b:	74 2c                	je     0x4030c9
  40309d:	8a 51 01             	mov    0x1(%ecx),%dl
  4030a0:	84 d2                	test   %dl,%dl
  4030a2:	74 25                	je     0x4030c9
  4030a4:	0f b6 01             	movzbl (%ecx),%eax
  4030a7:	0f b6 fa             	movzbl %dl,%edi
  4030aa:	3b c7                	cmp    %edi,%eax
  4030ac:	77 14                	ja     0x4030c2
  4030ae:	8b 55 fc             	mov    -0x4(%ebp),%edx
  4030b1:	8a 92 40 76 40 00    	mov    0x407640(%edx),%dl
  4030b7:	08 90 e1 9b 40 00    	or     %dl,0x409be1(%eax)
  4030bd:	40                   	inc    %eax
  4030be:	3b c7                	cmp    %edi,%eax
  4030c0:	76 f5                	jbe    0x4030b7
  4030c2:	41                   	inc    %ecx
  4030c3:	41                   	inc    %ecx
  4030c4:	80 39 00             	cmpb   $0x0,(%ecx)
  4030c7:	75 d4                	jne    0x40309d
  4030c9:	ff 45 fc             	incl   -0x4(%ebp)
  4030cc:	83 c3 08             	add    $0x8,%ebx
  4030cf:	83 7d fc 04          	cmpl   $0x4,-0x4(%ebp)
  4030d3:	72 c1                	jb     0x403096
  4030d5:	8b 45 08             	mov    0x8(%ebp),%eax
  4030d8:	c7 05 cc 9a 40 00 01 	movl   $0x1,0x409acc
  4030df:	00 00 00 
  4030e2:	50                   	push   %eax
  4030e3:	a3 bc 9a 40 00       	mov    %eax,0x409abc
  4030e8:	e8 c6 00 00 00       	call   0x4031b3
  4030ed:	8d b6 4c 76 40 00    	lea    0x40764c(%esi),%esi
  4030f3:	bf c0 9a 40 00       	mov    $0x409ac0,%edi
  4030f8:	a5                   	movsl  %ds:(%esi),%es:(%edi)
  4030f9:	a5                   	movsl  %ds:(%esi),%es:(%edi)
  4030fa:	59                   	pop    %ecx
  4030fb:	a3 e4 9c 40 00       	mov    %eax,0x409ce4
  403100:	a5                   	movsl  %ds:(%esi),%es:(%edi)
  403101:	eb 55                	jmp    0x403158
  403103:	41                   	inc    %ecx
  403104:	41                   	inc    %ecx
  403105:	80 79 ff 00          	cmpb   $0x0,-0x1(%ecx)
  403109:	0f 85 48 ff ff ff    	jne    0x403057
  40310f:	6a 01                	push   $0x1
  403111:	58                   	pop    %eax
  403112:	80 88 e1 9b 40 00 08 	orb    $0x8,0x409be1(%eax)
  403119:	40                   	inc    %eax
  40311a:	3d ff 00 00 00       	cmp    $0xff,%eax
  40311f:	72 f1                	jb     0x403112
  403121:	56                   	push   %esi
  403122:	e8 8c 00 00 00       	call   0x4031b3
  403127:	59                   	pop    %ecx
  403128:	a3 e4 9c 40 00       	mov    %eax,0x409ce4
  40312d:	c7 05 cc 9a 40 00 01 	movl   $0x1,0x409acc
  403134:	00 00 00 
  403137:	eb 06                	jmp    0x40313f
  403139:	89 1d cc 9a 40 00    	mov    %ebx,0x409acc
  40313f:	33 c0                	xor    %eax,%eax
  403141:	bf c0 9a 40 00       	mov    $0x409ac0,%edi
  403146:	ab                   	stos   %eax,%es:(%edi)
  403147:	ab                   	stos   %eax,%es:(%edi)
  403148:	ab                   	stos   %eax,%es:(%edi)
  403149:	eb 0d                	jmp    0x403158
  40314b:	39 1d 5c 9a 40 00    	cmp    %ebx,0x409a5c
  403151:	74 0e                	je     0x403161
  403153:	e8 8e 00 00 00       	call   0x4031e6
  403158:	e8 b2 00 00 00       	call   0x40320f
  40315d:	33 c0                	xor    %eax,%eax
  40315f:	eb 03                	jmp    0x403164
  403161:	83 c8 ff             	or     $0xffffffff,%eax
  403164:	5f                   	pop    %edi
  403165:	5e                   	pop    %esi
  403166:	5b                   	pop    %ebx
  403167:	c9                   	leave  
  403168:	c3                   	ret    
  403169:	8b 44 24 04          	mov    0x4(%esp),%eax
  40316d:	83 25 5c 9a 40 00 00 	andl   $0x0,0x409a5c
  403174:	83 f8 fe             	cmp    $0xfffffffe,%eax
  403177:	75 10                	jne    0x403189
  403179:	c7 05 5c 9a 40 00 01 	movl   $0x1,0x409a5c
  403180:	00 00 00 
  403183:	ff 25 70 60 40 00    	jmp    *0x406070
  403189:	83 f8 fd             	cmp    $0xfffffffd,%eax
  40318c:	75 10                	jne    0x40319e
  40318e:	c7 05 5c 9a 40 00 01 	movl   $0x1,0x409a5c
  403195:	00 00 00 
  403198:	ff 25 6c 60 40 00    	jmp    *0x40606c
  40319e:	83 f8 fc             	cmp    $0xfffffffc,%eax
  4031a1:	75 0f                	jne    0x4031b2
  4031a3:	a1 90 9a 40 00       	mov    0x409a90,%eax
  4031a8:	c7 05 5c 9a 40 00 01 	movl   $0x1,0x409a5c
  4031af:	00 00 00 
  4031b2:	c3                   	ret    
  4031b3:	8b 44 24 04          	mov    0x4(%esp),%eax
  4031b7:	2d a4 03 00 00       	sub    $0x3a4,%eax
  4031bc:	74 22                	je     0x4031e0
  4031be:	83 e8 04             	sub    $0x4,%eax
  4031c1:	74 17                	je     0x4031da
  4031c3:	83 e8 0d             	sub    $0xd,%eax
  4031c6:	74 0c                	je     0x4031d4
  4031c8:	48                   	dec    %eax
  4031c9:	74 03                	je     0x4031ce
  4031cb:	33 c0                	xor    %eax,%eax
  4031cd:	c3                   	ret    
  4031ce:	b8 04 04 00 00       	mov    $0x404,%eax
  4031d3:	c3                   	ret    
  4031d4:	b8 12 04 00 00       	mov    $0x412,%eax
  4031d9:	c3                   	ret    
  4031da:	b8 04 08 00 00       	mov    $0x804,%eax
  4031df:	c3                   	ret    
  4031e0:	b8 11 04 00 00       	mov    $0x411,%eax
  4031e5:	c3                   	ret    
  4031e6:	57                   	push   %edi
  4031e7:	6a 40                	push   $0x40
  4031e9:	59                   	pop    %ecx
  4031ea:	33 c0                	xor    %eax,%eax
  4031ec:	bf e0 9b 40 00       	mov    $0x409be0,%edi
  4031f1:	f3 ab                	rep stos %eax,%es:(%edi)
  4031f3:	aa                   	stos   %al,%es:(%edi)
  4031f4:	33 c0                	xor    %eax,%eax
  4031f6:	bf c0 9a 40 00       	mov    $0x409ac0,%edi
  4031fb:	a3 bc 9a 40 00       	mov    %eax,0x409abc
  403200:	a3 cc 9a 40 00       	mov    %eax,0x409acc
  403205:	a3 e4 9c 40 00       	mov    %eax,0x409ce4
  40320a:	ab                   	stos   %eax,%es:(%edi)
  40320b:	ab                   	stos   %eax,%es:(%edi)
  40320c:	ab                   	stos   %eax,%es:(%edi)
  40320d:	5f                   	pop    %edi
  40320e:	c3                   	ret    
  40320f:	55                   	push   %ebp
  403210:	8b ec                	mov    %esp,%ebp
  403212:	81 ec 14 05 00 00    	sub    $0x514,%esp
  403218:	8d 45 ec             	lea    -0x14(%ebp),%eax
  40321b:	56                   	push   %esi
  40321c:	50                   	push   %eax
  40321d:	ff 35 bc 9a 40 00    	pushl  0x409abc
  403223:	ff 15 68 60 40 00    	call   *0x406068
  403229:	83 f8 01             	cmp    $0x1,%eax
  40322c:	0f 85 16 01 00 00    	jne    0x403348
  403232:	33 c0                	xor    %eax,%eax
  403234:	be 00 01 00 00       	mov    $0x100,%esi
  403239:	88 84 05 ec fe ff ff 	mov    %al,-0x114(%ebp,%eax,1)
  403240:	40                   	inc    %eax
  403241:	3b c6                	cmp    %esi,%eax
  403243:	72 f4                	jb     0x403239
  403245:	8a 45 f2             	mov    -0xe(%ebp),%al
  403248:	c6 85 ec fe ff ff 20 	movb   $0x20,-0x114(%ebp)
  40324f:	84 c0                	test   %al,%al
  403251:	74 37                	je     0x40328a
  403253:	53                   	push   %ebx
  403254:	57                   	push   %edi
  403255:	8d 55 f3             	lea    -0xd(%ebp),%edx
  403258:	0f b6 0a             	movzbl (%edx),%ecx
  40325b:	0f b6 c0             	movzbl %al,%eax
  40325e:	3b c1                	cmp    %ecx,%eax
  403260:	77 1d                	ja     0x40327f
  403262:	2b c8                	sub    %eax,%ecx
  403264:	8d bc 05 ec fe ff ff 	lea    -0x114(%ebp,%eax,1),%edi
  40326b:	41                   	inc    %ecx
  40326c:	b8 20 20 20 20       	mov    $0x20202020,%eax
  403271:	8b d9                	mov    %ecx,%ebx
  403273:	c1 e9 02             	shr    $0x2,%ecx
  403276:	f3 ab                	rep stos %eax,%es:(%edi)
  403278:	8b cb                	mov    %ebx,%ecx
  40327a:	83 e1 03             	and    $0x3,%ecx
  40327d:	f3 aa                	rep stos %al,%es:(%edi)
  40327f:	42                   	inc    %edx
  403280:	42                   	inc    %edx
  403281:	8a 42 ff             	mov    -0x1(%edx),%al
  403284:	84 c0                	test   %al,%al
  403286:	75 d0                	jne    0x403258
  403288:	5f                   	pop    %edi
  403289:	5b                   	pop    %ebx
  40328a:	6a 00                	push   $0x0
  40328c:	8d 85 ec fa ff ff    	lea    -0x514(%ebp),%eax
  403292:	ff 35 e4 9c 40 00    	pushl  0x409ce4
  403298:	ff 35 bc 9a 40 00    	pushl  0x409abc
  40329e:	50                   	push   %eax
  40329f:	8d 85 ec fe ff ff    	lea    -0x114(%ebp),%eax
  4032a5:	56                   	push   %esi
  4032a6:	50                   	push   %eax
  4032a7:	6a 01                	push   $0x1
  4032a9:	e8 2f 1e 00 00       	call   0x4050dd
  4032ae:	6a 00                	push   $0x0
  4032b0:	8d 85 ec fd ff ff    	lea    -0x214(%ebp),%eax
  4032b6:	ff 35 bc 9a 40 00    	pushl  0x409abc
  4032bc:	56                   	push   %esi
  4032bd:	50                   	push   %eax
  4032be:	8d 85 ec fe ff ff    	lea    -0x114(%ebp),%eax
  4032c4:	56                   	push   %esi
  4032c5:	50                   	push   %eax
  4032c6:	56                   	push   %esi
  4032c7:	ff 35 e4 9c 40 00    	pushl  0x409ce4
  4032cd:	e8 bc 1b 00 00       	call   0x404e8e
  4032d2:	6a 00                	push   $0x0
  4032d4:	8d 85 ec fc ff ff    	lea    -0x314(%ebp),%eax
  4032da:	ff 35 bc 9a 40 00    	pushl  0x409abc
  4032e0:	56                   	push   %esi
  4032e1:	50                   	push   %eax
  4032e2:	8d 85 ec fe ff ff    	lea    -0x114(%ebp),%eax
  4032e8:	56                   	push   %esi
  4032e9:	50                   	push   %eax
  4032ea:	68 00 02 00 00       	push   $0x200
  4032ef:	ff 35 e4 9c 40 00    	pushl  0x409ce4
  4032f5:	e8 94 1b 00 00       	call   0x404e8e
  4032fa:	83 c4 5c             	add    $0x5c,%esp
  4032fd:	33 c0                	xor    %eax,%eax
  4032ff:	8d 8d ec fa ff ff    	lea    -0x514(%ebp),%ecx
  403305:	66 8b 11             	mov    (%ecx),%dx
  403308:	f6 c2 01             	test   $0x1,%dl
  40330b:	74 16                	je     0x403323
  40330d:	80 88 e1 9b 40 00 10 	orb    $0x10,0x409be1(%eax)
  403314:	8a 94 05 ec fd ff ff 	mov    -0x214(%ebp,%eax,1),%dl
  40331b:	88 90 e0 9a 40 00    	mov    %dl,0x409ae0(%eax)
  403321:	eb 1c                	jmp    0x40333f
  403323:	f6 c2 02             	test   $0x2,%dl
  403326:	74 10                	je     0x403338
  403328:	80 88 e1 9b 40 00 20 	orb    $0x20,0x409be1(%eax)
  40332f:	8a 94 05 ec fc ff ff 	mov    -0x314(%ebp,%eax,1),%dl
  403336:	eb e3                	jmp    0x40331b
  403338:	80 a0 e0 9a 40 00 00 	andb   $0x0,0x409ae0(%eax)
  40333f:	40                   	inc    %eax
  403340:	41                   	inc    %ecx
  403341:	41                   	inc    %ecx
  403342:	3b c6                	cmp    %esi,%eax
  403344:	72 bf                	jb     0x403305
  403346:	eb 49                	jmp    0x403391
  403348:	33 c0                	xor    %eax,%eax
  40334a:	be 00 01 00 00       	mov    $0x100,%esi
  40334f:	83 f8 41             	cmp    $0x41,%eax
  403352:	72 19                	jb     0x40336d
  403354:	83 f8 5a             	cmp    $0x5a,%eax
  403357:	77 14                	ja     0x40336d
  403359:	80 88 e1 9b 40 00 10 	orb    $0x10,0x409be1(%eax)
  403360:	8a c8                	mov    %al,%cl
  403362:	80 c1 20             	add    $0x20,%cl
  403365:	88 88 e0 9a 40 00    	mov    %cl,0x409ae0(%eax)
  40336b:	eb 1f                	jmp    0x40338c
  40336d:	83 f8 61             	cmp    $0x61,%eax
  403370:	72 13                	jb     0x403385
  403372:	83 f8 7a             	cmp    $0x7a,%eax
  403375:	77 0e                	ja     0x403385
  403377:	80 88 e1 9b 40 00 20 	orb    $0x20,0x409be1(%eax)
  40337e:	8a c8                	mov    %al,%cl
  403380:	80 e9 20             	sub    $0x20,%cl
  403383:	eb e0                	jmp    0x403365
  403385:	80 a0 e0 9a 40 00 00 	andb   $0x0,0x409ae0(%eax)
  40338c:	40                   	inc    %eax
  40338d:	3b c6                	cmp    %esi,%eax
  40338f:	72 be                	jb     0x40334f
  403391:	5e                   	pop    %esi
  403392:	c9                   	leave  
  403393:	c3                   	ret    
  403394:	83 3d 08 9e 40 00 00 	cmpl   $0x0,0x409e08
  40339b:	75 12                	jne    0x4033af
  40339d:	6a fd                	push   $0xfffffffd
  40339f:	e8 2c fc ff ff       	call   0x402fd0
  4033a4:	59                   	pop    %ecx
  4033a5:	c7 05 08 9e 40 00 01 	movl   $0x1,0x409e08
  4033ac:	00 00 00 
  4033af:	c3                   	ret    
  4033b0:	55                   	push   %ebp
  4033b1:	8b ec                	mov    %esp,%ebp
  4033b3:	57                   	push   %edi
  4033b4:	56                   	push   %esi
  4033b5:	8b 75 0c             	mov    0xc(%ebp),%esi
  4033b8:	8b 4d 10             	mov    0x10(%ebp),%ecx
  4033bb:	8b 7d 08             	mov    0x8(%ebp),%edi
  4033be:	8b c1                	mov    %ecx,%eax
  4033c0:	8b d1                	mov    %ecx,%edx
  4033c2:	03 c6                	add    %esi,%eax
  4033c4:	3b fe                	cmp    %esi,%edi
  4033c6:	76 08                	jbe    0x4033d0
  4033c8:	3b f8                	cmp    %eax,%edi
  4033ca:	0f 82 78 01 00 00    	jb     0x403548
  4033d0:	f7 c7 03 00 00 00    	test   $0x3,%edi
  4033d6:	75 14                	jne    0x4033ec
  4033d8:	c1 e9 02             	shr    $0x2,%ecx
  4033db:	83 e2 03             	and    $0x3,%edx
  4033de:	83 f9 08             	cmp    $0x8,%ecx
  4033e1:	72 29                	jb     0x40340c
  4033e3:	f3 a5                	rep movsl %ds:(%esi),%es:(%edi)
  4033e5:	ff 24 95 f8 34 40 00 	jmp    *0x4034f8(,%edx,4)
  4033ec:	8b c7                	mov    %edi,%eax
  4033ee:	ba 03 00 00 00       	mov    $0x3,%edx
  4033f3:	83 e9 04             	sub    $0x4,%ecx
  4033f6:	72 0c                	jb     0x403404
  4033f8:	83 e0 03             	and    $0x3,%eax
  4033fb:	03 c8                	add    %eax,%ecx
  4033fd:	ff 24 85 10 34 40 00 	jmp    *0x403410(,%eax,4)
  403404:	ff 24 8d 08 35 40 00 	jmp    *0x403508(,%ecx,4)
  40340b:	90                   	nop
  40340c:	ff 24 8d 8c 34 40 00 	jmp    *0x40348c(,%ecx,4)
  403413:	90                   	nop
  403414:	20 34 40             	and    %dh,(%eax,%eax,2)
  403417:	00 4c 34 40          	add    %cl,0x40(%esp,%esi,1)
  40341b:	00 70 34             	add    %dh,0x34(%eax)
  40341e:	40                   	inc    %eax
  40341f:	00 23                	add    %ah,(%ebx)
  403421:	d1 8a 06 88 07 8a    	rorl   -0x75f877fa(%edx)
  403427:	46                   	inc    %esi
  403428:	01 88 47 01 8a 46    	add    %ecx,0x468a0147(%eax)
  40342e:	02 c1                	add    %cl,%al
  403430:	e9 02 88 47 02       	jmp    0x287bc37
  403435:	83 c6 03             	add    $0x3,%esi
  403438:	83 c7 03             	add    $0x3,%edi
  40343b:	83 f9 08             	cmp    $0x8,%ecx
  40343e:	72 cc                	jb     0x40340c
  403440:	f3 a5                	rep movsl %ds:(%esi),%es:(%edi)
  403442:	ff 24 95 f8 34 40 00 	jmp    *0x4034f8(,%edx,4)
  403449:	8d 49 00             	lea    0x0(%ecx),%ecx
  40344c:	23 d1                	and    %ecx,%edx
  40344e:	8a 06                	mov    (%esi),%al
  403450:	88 07                	mov    %al,(%edi)
  403452:	8a 46 01             	mov    0x1(%esi),%al
  403455:	c1 e9 02             	shr    $0x2,%ecx
  403458:	88 47 01             	mov    %al,0x1(%edi)
  40345b:	83 c6 02             	add    $0x2,%esi
  40345e:	83 c7 02             	add    $0x2,%edi
  403461:	83 f9 08             	cmp    $0x8,%ecx
  403464:	72 a6                	jb     0x40340c
  403466:	f3 a5                	rep movsl %ds:(%esi),%es:(%edi)
  403468:	ff 24 95 f8 34 40 00 	jmp    *0x4034f8(,%edx,4)
  40346f:	90                   	nop
  403470:	23 d1                	and    %ecx,%edx
  403472:	8a 06                	mov    (%esi),%al
  403474:	88 07                	mov    %al,(%edi)
  403476:	46                   	inc    %esi
  403477:	c1 e9 02             	shr    $0x2,%ecx
  40347a:	47                   	inc    %edi
  40347b:	83 f9 08             	cmp    $0x8,%ecx
  40347e:	72 8c                	jb     0x40340c
  403480:	f3 a5                	rep movsl %ds:(%esi),%es:(%edi)
  403482:	ff 24 95 f8 34 40 00 	jmp    *0x4034f8(,%edx,4)
  403489:	8d 49 00             	lea    0x0(%ecx),%ecx
  40348c:	ef                   	out    %eax,(%dx)
  40348d:	34 40                	xor    $0x40,%al
  40348f:	00 dc                	add    %bl,%ah
  403491:	34 40                	xor    $0x40,%al
  403493:	00 d4                	add    %dl,%ah
  403495:	34 40                	xor    $0x40,%al
  403497:	00 cc                	add    %cl,%ah
  403499:	34 40                	xor    $0x40,%al
  40349b:	00 c4                	add    %al,%ah
  40349d:	34 40                	xor    $0x40,%al
  40349f:	00 bc 34 40 00 b4 34 	add    %bh,0x34b40040(%esp,%esi,1)
  4034a6:	40                   	inc    %eax
  4034a7:	00 ac 34 40 00 8b 44 	add    %ch,0x448b0040(%esp,%esi,1)
  4034ae:	8e e4                	mov    %esp,%fs
  4034b0:	89 44 8f e4          	mov    %eax,-0x1c(%edi,%ecx,4)
  4034b4:	8b 44 8e e8          	mov    -0x18(%esi,%ecx,4),%eax
  4034b8:	89 44 8f e8          	mov    %eax,-0x18(%edi,%ecx,4)
  4034bc:	8b 44 8e ec          	mov    -0x14(%esi,%ecx,4),%eax
  4034c0:	89 44 8f ec          	mov    %eax,-0x14(%edi,%ecx,4)
  4034c4:	8b 44 8e f0          	mov    -0x10(%esi,%ecx,4),%eax
  4034c8:	89 44 8f f0          	mov    %eax,-0x10(%edi,%ecx,4)
  4034cc:	8b 44 8e f4          	mov    -0xc(%esi,%ecx,4),%eax
  4034d0:	89 44 8f f4          	mov    %eax,-0xc(%edi,%ecx,4)
  4034d4:	8b 44 8e f8          	mov    -0x8(%esi,%ecx,4),%eax
  4034d8:	89 44 8f f8          	mov    %eax,-0x8(%edi,%ecx,4)
  4034dc:	8b 44 8e fc          	mov    -0x4(%esi,%ecx,4),%eax
  4034e0:	89 44 8f fc          	mov    %eax,-0x4(%edi,%ecx,4)
  4034e4:	8d 04 8d 00 00 00 00 	lea    0x0(,%ecx,4),%eax
  4034eb:	03 f0                	add    %eax,%esi
  4034ed:	03 f8                	add    %eax,%edi
  4034ef:	ff 24 95 f8 34 40 00 	jmp    *0x4034f8(,%edx,4)
  4034f6:	8b ff                	mov    %edi,%edi
  4034f8:	08 35 40 00 10 35    	or     %dh,0x35100040
  4034fe:	40                   	inc    %eax
  4034ff:	00 1c 35 40 00 30 35 	add    %bl,0x35300040(,%esi,1)
  403506:	40                   	inc    %eax
  403507:	00 8b 45 08 5e 5f    	add    %cl,0x5f5e0845(%ebx)
  40350d:	c9                   	leave  
  40350e:	c3                   	ret    
  40350f:	90                   	nop
  403510:	8a 06                	mov    (%esi),%al
  403512:	88 07                	mov    %al,(%edi)
  403514:	8b 45 08             	mov    0x8(%ebp),%eax
  403517:	5e                   	pop    %esi
  403518:	5f                   	pop    %edi
  403519:	c9                   	leave  
  40351a:	c3                   	ret    
  40351b:	90                   	nop
  40351c:	8a 06                	mov    (%esi),%al
  40351e:	88 07                	mov    %al,(%edi)
  403520:	8a 46 01             	mov    0x1(%esi),%al
  403523:	88 47 01             	mov    %al,0x1(%edi)
  403526:	8b 45 08             	mov    0x8(%ebp),%eax
  403529:	5e                   	pop    %esi
  40352a:	5f                   	pop    %edi
  40352b:	c9                   	leave  
  40352c:	c3                   	ret    
  40352d:	8d 49 00             	lea    0x0(%ecx),%ecx
  403530:	8a 06                	mov    (%esi),%al
  403532:	88 07                	mov    %al,(%edi)
  403534:	8a 46 01             	mov    0x1(%esi),%al
  403537:	88 47 01             	mov    %al,0x1(%edi)
  40353a:	8a 46 02             	mov    0x2(%esi),%al
  40353d:	88 47 02             	mov    %al,0x2(%edi)
  403540:	8b 45 08             	mov    0x8(%ebp),%eax
  403543:	5e                   	pop    %esi
  403544:	5f                   	pop    %edi
  403545:	c9                   	leave  
  403546:	c3                   	ret    
  403547:	90                   	nop
  403548:	8d 74 31 fc          	lea    -0x4(%ecx,%esi,1),%esi
  40354c:	8d 7c 39 fc          	lea    -0x4(%ecx,%edi,1),%edi
  403550:	f7 c7 03 00 00 00    	test   $0x3,%edi
  403556:	75 24                	jne    0x40357c
  403558:	c1 e9 02             	shr    $0x2,%ecx
  40355b:	83 e2 03             	and    $0x3,%edx
  40355e:	83 f9 08             	cmp    $0x8,%ecx
  403561:	72 0d                	jb     0x403570
  403563:	fd                   	std    
  403564:	f3 a5                	rep movsl %ds:(%esi),%es:(%edi)
  403566:	fc                   	cld    
  403567:	ff 24 95 90 36 40 00 	jmp    *0x403690(,%edx,4)
  40356e:	8b ff                	mov    %edi,%edi
  403570:	f7 d9                	neg    %ecx
  403572:	ff 24 8d 40 36 40 00 	jmp    *0x403640(,%ecx,4)
  403579:	8d 49 00             	lea    0x0(%ecx),%ecx
  40357c:	8b c7                	mov    %edi,%eax
  40357e:	ba 03 00 00 00       	mov    $0x3,%edx
  403583:	83 f9 04             	cmp    $0x4,%ecx
  403586:	72 0c                	jb     0x403594
  403588:	83 e0 03             	and    $0x3,%eax
  40358b:	2b c8                	sub    %eax,%ecx
  40358d:	ff 24 85 98 35 40 00 	jmp    *0x403598(,%eax,4)
  403594:	ff 24 8d 90 36 40 00 	jmp    *0x403690(,%ecx,4)
  40359b:	90                   	nop
  40359c:	a8 35                	test   $0x35,%al
  40359e:	40                   	inc    %eax
  40359f:	00 c8                	add    %cl,%al
  4035a1:	35 40 00 f0 35       	xor    $0x35f00040,%eax
  4035a6:	40                   	inc    %eax
  4035a7:	00 8a 46 03 23 d1    	add    %cl,-0x2edcfcba(%edx)
  4035ad:	88 47 03             	mov    %al,0x3(%edi)
  4035b0:	4e                   	dec    %esi
  4035b1:	c1 e9 02             	shr    $0x2,%ecx
  4035b4:	4f                   	dec    %edi
  4035b5:	83 f9 08             	cmp    $0x8,%ecx
  4035b8:	72 b6                	jb     0x403570
  4035ba:	fd                   	std    
  4035bb:	f3 a5                	rep movsl %ds:(%esi),%es:(%edi)
  4035bd:	fc                   	cld    
  4035be:	ff 24 95 90 36 40 00 	jmp    *0x403690(,%edx,4)
  4035c5:	8d 49 00             	lea    0x0(%ecx),%ecx
  4035c8:	8a 46 03             	mov    0x3(%esi),%al
  4035cb:	23 d1                	and    %ecx,%edx
  4035cd:	88 47 03             	mov    %al,0x3(%edi)
  4035d0:	8a 46 02             	mov    0x2(%esi),%al
  4035d3:	c1 e9 02             	shr    $0x2,%ecx
  4035d6:	88 47 02             	mov    %al,0x2(%edi)
  4035d9:	83 ee 02             	sub    $0x2,%esi
  4035dc:	83 ef 02             	sub    $0x2,%edi
  4035df:	83 f9 08             	cmp    $0x8,%ecx
  4035e2:	72 8c                	jb     0x403570
  4035e4:	fd                   	std    
  4035e5:	f3 a5                	rep movsl %ds:(%esi),%es:(%edi)
  4035e7:	fc                   	cld    
  4035e8:	ff 24 95 90 36 40 00 	jmp    *0x403690(,%edx,4)
  4035ef:	90                   	nop
  4035f0:	8a 46 03             	mov    0x3(%esi),%al
  4035f3:	23 d1                	and    %ecx,%edx
  4035f5:	88 47 03             	mov    %al,0x3(%edi)
  4035f8:	8a 46 02             	mov    0x2(%esi),%al
  4035fb:	88 47 02             	mov    %al,0x2(%edi)
  4035fe:	8a 46 01             	mov    0x1(%esi),%al
  403601:	c1 e9 02             	shr    $0x2,%ecx
  403604:	88 47 01             	mov    %al,0x1(%edi)
  403607:	83 ee 03             	sub    $0x3,%esi
  40360a:	83 ef 03             	sub    $0x3,%edi
  40360d:	83 f9 08             	cmp    $0x8,%ecx
  403610:	0f 82 5a ff ff ff    	jb     0x403570
  403616:	fd                   	std    
  403617:	f3 a5                	rep movsl %ds:(%esi),%es:(%edi)
  403619:	fc                   	cld    
  40361a:	ff 24 95 90 36 40 00 	jmp    *0x403690(,%edx,4)
  403621:	8d 49 00             	lea    0x0(%ecx),%ecx
  403624:	44                   	inc    %esp
  403625:	36 40                	ss inc %eax
  403627:	00 4c 36 40          	add    %cl,0x40(%esi,%esi,1)
  40362b:	00 54 36 40          	add    %dl,0x40(%esi,%esi,1)
  40362f:	00 5c 36 40          	add    %bl,0x40(%esi,%esi,1)
  403633:	00 64 36 40          	add    %ah,0x40(%esi,%esi,1)
  403637:	00 6c 36 40          	add    %ch,0x40(%esi,%esi,1)
  40363b:	00 74 36 40          	add    %dh,0x40(%esi,%esi,1)
  40363f:	00 87 36 40 00 8b    	add    %al,-0x74ffbfca(%edi)
  403645:	44                   	inc    %esp
  403646:	8e 1c 89             	mov    (%ecx,%ecx,4),%ds
  403649:	44                   	inc    %esp
  40364a:	8f                   	(bad)  
  40364b:	1c 8b                	sbb    $0x8b,%al
  40364d:	44                   	inc    %esp
  40364e:	8e 18                	mov    (%eax),%ds
  403650:	89 44 8f 18          	mov    %eax,0x18(%edi,%ecx,4)
  403654:	8b 44 8e 14          	mov    0x14(%esi,%ecx,4),%eax
  403658:	89 44 8f 14          	mov    %eax,0x14(%edi,%ecx,4)
  40365c:	8b 44 8e 10          	mov    0x10(%esi,%ecx,4),%eax
  403660:	89 44 8f 10          	mov    %eax,0x10(%edi,%ecx,4)
  403664:	8b 44 8e 0c          	mov    0xc(%esi,%ecx,4),%eax
  403668:	89 44 8f 0c          	mov    %eax,0xc(%edi,%ecx,4)
  40366c:	8b 44 8e 08          	mov    0x8(%esi,%ecx,4),%eax
  403670:	89 44 8f 08          	mov    %eax,0x8(%edi,%ecx,4)
  403674:	8b 44 8e 04          	mov    0x4(%esi,%ecx,4),%eax
  403678:	89 44 8f 04          	mov    %eax,0x4(%edi,%ecx,4)
  40367c:	8d 04 8d 00 00 00 00 	lea    0x0(,%ecx,4),%eax
  403683:	03 f0                	add    %eax,%esi
  403685:	03 f8                	add    %eax,%edi
  403687:	ff 24 95 90 36 40 00 	jmp    *0x403690(,%edx,4)
  40368e:	8b ff                	mov    %edi,%edi
  403690:	a0 36 40 00 a8       	mov    0xa8004036,%al
  403695:	36 40                	ss inc %eax
  403697:	00 b8 36 40 00 cc    	add    %bh,-0x33ffbfca(%eax)
  40369d:	36 40                	ss inc %eax
  40369f:	00 8b 45 08 5e 5f    	add    %cl,0x5f5e0845(%ebx)
  4036a5:	c9                   	leave  
  4036a6:	c3                   	ret    
  4036a7:	90                   	nop
  4036a8:	8a 46 03             	mov    0x3(%esi),%al
  4036ab:	88 47 03             	mov    %al,0x3(%edi)
  4036ae:	8b 45 08             	mov    0x8(%ebp),%eax
  4036b1:	5e                   	pop    %esi
  4036b2:	5f                   	pop    %edi
  4036b3:	c9                   	leave  
  4036b4:	c3                   	ret    
  4036b5:	8d 49 00             	lea    0x0(%ecx),%ecx
  4036b8:	8a 46 03             	mov    0x3(%esi),%al
  4036bb:	88 47 03             	mov    %al,0x3(%edi)
  4036be:	8a 46 02             	mov    0x2(%esi),%al
  4036c1:	88 47 02             	mov    %al,0x2(%edi)
  4036c4:	8b 45 08             	mov    0x8(%ebp),%eax
  4036c7:	5e                   	pop    %esi
  4036c8:	5f                   	pop    %edi
  4036c9:	c9                   	leave  
  4036ca:	c3                   	ret    
  4036cb:	90                   	nop
  4036cc:	8a 46 03             	mov    0x3(%esi),%al
  4036cf:	88 47 03             	mov    %al,0x3(%edi)
  4036d2:	8a 46 02             	mov    0x2(%esi),%al
  4036d5:	88 47 02             	mov    %al,0x2(%edi)
  4036d8:	8a 46 01             	mov    0x1(%esi),%al
  4036db:	88 47 01             	mov    %al,0x1(%edi)
  4036de:	8b 45 08             	mov    0x8(%ebp),%eax
  4036e1:	5e                   	pop    %esi
  4036e2:	5f                   	pop    %edi
  4036e3:	c9                   	leave  
  4036e4:	c3                   	ret    
  4036e5:	6a 00                	push   $0x0
  4036e7:	ff 74 24 10          	pushl  0x10(%esp)
  4036eb:	ff 74 24 10          	pushl  0x10(%esp)
  4036ef:	ff 74 24 10          	pushl  0x10(%esp)
  4036f3:	e8 04 00 00 00       	call   0x4036fc
  4036f8:	83 c4 10             	add    $0x10,%esp
  4036fb:	c3                   	ret    
  4036fc:	55                   	push   %ebp
  4036fd:	8b ec                	mov    %esp,%ebp
  4036ff:	83 ec 0c             	sub    $0xc,%esp
  403702:	53                   	push   %ebx
  403703:	83 65 f8 00          	andl   $0x0,-0x8(%ebp)
  403707:	56                   	push   %esi
  403708:	57                   	push   %edi
  403709:	8b 7d 08             	mov    0x8(%ebp),%edi
  40370c:	8a 1f                	mov    (%edi),%bl
  40370e:	8d 77 01             	lea    0x1(%edi),%esi
  403711:	89 75 fc             	mov    %esi,-0x4(%ebp)
  403714:	83 3d 70 97 40 00 01 	cmpl   $0x1,0x409770
  40371b:	7e 0f                	jle    0x40372c
  40371d:	0f b6 c3             	movzbl %bl,%eax
  403720:	6a 08                	push   $0x8
  403722:	50                   	push   %eax
  403723:	e8 ca 1b 00 00       	call   0x4052f2
  403728:	59                   	pop    %ecx
  403729:	59                   	pop    %ecx
  40372a:	eb 0f                	jmp    0x40373b
  40372c:	8b 0d 28 74 40 00    	mov    0x407428,%ecx
  403732:	0f b6 c3             	movzbl %bl,%eax
  403735:	8a 04 41             	mov    (%ecx,%eax,2),%al
  403738:	83 e0 08             	and    $0x8,%eax
  40373b:	85 c0                	test   %eax,%eax
  40373d:	74 05                	je     0x403744
  40373f:	8a 1e                	mov    (%esi),%bl
  403741:	46                   	inc    %esi
  403742:	eb d0                	jmp    0x403714
  403744:	80 fb 2d             	cmp    $0x2d,%bl
  403747:	89 75 fc             	mov    %esi,-0x4(%ebp)
  40374a:	75 06                	jne    0x403752
  40374c:	83 4d 14 02          	orl    $0x2,0x14(%ebp)
  403750:	eb 05                	jmp    0x403757
  403752:	80 fb 2b             	cmp    $0x2b,%bl
  403755:	75 06                	jne    0x40375d
  403757:	8a 1e                	mov    (%esi),%bl
  403759:	46                   	inc    %esi
  40375a:	89 75 fc             	mov    %esi,-0x4(%ebp)
  40375d:	8b 45 10             	mov    0x10(%ebp),%eax
  403760:	85 c0                	test   %eax,%eax
  403762:	0f 8c 8c 01 00 00    	jl     0x4038f4
  403768:	83 f8 01             	cmp    $0x1,%eax
  40376b:	0f 84 83 01 00 00    	je     0x4038f4
  403771:	83 f8 24             	cmp    $0x24,%eax
  403774:	0f 8f 7a 01 00 00    	jg     0x4038f4
  40377a:	6a 10                	push   $0x10
  40377c:	85 c0                	test   %eax,%eax
  40377e:	59                   	pop    %ecx
  40377f:	75 24                	jne    0x4037a5
  403781:	80 fb 30             	cmp    $0x30,%bl
  403784:	74 09                	je     0x40378f
  403786:	c7 45 10 0a 00 00 00 	movl   $0xa,0x10(%ebp)
  40378d:	eb 32                	jmp    0x4037c1
  40378f:	8a 06                	mov    (%esi),%al
  403791:	3c 78                	cmp    $0x78,%al
  403793:	74 0d                	je     0x4037a2
  403795:	3c 58                	cmp    $0x58,%al
  403797:	74 09                	je     0x4037a2
  403799:	c7 45 10 08 00 00 00 	movl   $0x8,0x10(%ebp)
  4037a0:	eb 1f                	jmp    0x4037c1
  4037a2:	89 4d 10             	mov    %ecx,0x10(%ebp)
  4037a5:	39 4d 10             	cmp    %ecx,0x10(%ebp)
  4037a8:	75 17                	jne    0x4037c1
  4037aa:	80 fb 30             	cmp    $0x30,%bl
  4037ad:	75 12                	jne    0x4037c1
  4037af:	8a 06                	mov    (%esi),%al
  4037b1:	3c 78                	cmp    $0x78,%al
  4037b3:	74 04                	je     0x4037b9
  4037b5:	3c 58                	cmp    $0x58,%al
  4037b7:	75 08                	jne    0x4037c1
  4037b9:	8a 5e 01             	mov    0x1(%esi),%bl
  4037bc:	46                   	inc    %esi
  4037bd:	46                   	inc    %esi
  4037be:	89 75 fc             	mov    %esi,-0x4(%ebp)
  4037c1:	83 c8 ff             	or     $0xffffffff,%eax
  4037c4:	33 d2                	xor    %edx,%edx
  4037c6:	f7 75 10             	divl   0x10(%ebp)
  4037c9:	bf 03 01 00 00       	mov    $0x103,%edi
  4037ce:	89 45 f4             	mov    %eax,-0xc(%ebp)
  4037d1:	83 3d 70 97 40 00 01 	cmpl   $0x1,0x409770
  4037d8:	0f b6 f3             	movzbl %bl,%esi
  4037db:	7e 0c                	jle    0x4037e9
  4037dd:	6a 04                	push   $0x4
  4037df:	56                   	push   %esi
  4037e0:	e8 0d 1b 00 00       	call   0x4052f2
  4037e5:	59                   	pop    %ecx
  4037e6:	59                   	pop    %ecx
  4037e7:	eb 0b                	jmp    0x4037f4
  4037e9:	a1 28 74 40 00       	mov    0x407428,%eax
  4037ee:	8a 04 70             	mov    (%eax,%esi,2),%al
  4037f1:	83 e0 04             	and    $0x4,%eax
  4037f4:	85 c0                	test   %eax,%eax
  4037f6:	74 08                	je     0x403800
  4037f8:	0f be cb             	movsbl %bl,%ecx
  4037fb:	83 e9 30             	sub    $0x30,%ecx
  4037fe:	eb 32                	jmp    0x403832
  403800:	83 3d 70 97 40 00 01 	cmpl   $0x1,0x409770
  403807:	7e 0b                	jle    0x403814
  403809:	57                   	push   %edi
  40380a:	56                   	push   %esi
  40380b:	e8 e2 1a 00 00       	call   0x4052f2
  403810:	59                   	pop    %ecx
  403811:	59                   	pop    %ecx
  403812:	eb 0b                	jmp    0x40381f
  403814:	a1 28 74 40 00       	mov    0x407428,%eax
  403819:	66 8b 04 70          	mov    (%eax,%esi,2),%ax
  40381d:	23 c7                	and    %edi,%eax
  40381f:	85 c0                	test   %eax,%eax
  403821:	74 4a                	je     0x40386d
  403823:	0f be c3             	movsbl %bl,%eax
  403826:	50                   	push   %eax
  403827:	e8 fa 19 00 00       	call   0x405226
  40382c:	59                   	pop    %ecx
  40382d:	8b c8                	mov    %eax,%ecx
  40382f:	83 e9 37             	sub    $0x37,%ecx
  403832:	3b 4d 10             	cmp    0x10(%ebp),%ecx
  403835:	73 36                	jae    0x40386d
  403837:	8b 75 f8             	mov    -0x8(%ebp),%esi
  40383a:	83 4d 14 08          	orl    $0x8,0x14(%ebp)
  40383e:	3b 75 f4             	cmp    -0xc(%ebp),%esi
  403841:	72 14                	jb     0x403857
  403843:	75 0c                	jne    0x403851
  403845:	83 c8 ff             	or     $0xffffffff,%eax
  403848:	33 d2                	xor    %edx,%edx
  40384a:	f7 75 10             	divl   0x10(%ebp)
  40384d:	3b ca                	cmp    %edx,%ecx
  40384f:	76 06                	jbe    0x403857
  403851:	83 4d 14 04          	orl    $0x4,0x14(%ebp)
  403855:	eb 09                	jmp    0x403860
  403857:	0f af 75 10          	imul   0x10(%ebp),%esi
  40385b:	03 f1                	add    %ecx,%esi
  40385d:	89 75 f8             	mov    %esi,-0x8(%ebp)
  403860:	8b 45 fc             	mov    -0x4(%ebp),%eax
  403863:	ff 45 fc             	incl   -0x4(%ebp)
  403866:	8a 18                	mov    (%eax),%bl
  403868:	e9 64 ff ff ff       	jmp    0x4037d1
  40386d:	8b 4d 14             	mov    0x14(%ebp),%ecx
  403870:	ff 4d fc             	decl   -0x4(%ebp)
  403873:	8b 55 0c             	mov    0xc(%ebp),%edx
  403876:	f6 c1 08             	test   $0x8,%cl
  403879:	75 10                	jne    0x40388b
  40387b:	85 d2                	test   %edx,%edx
  40387d:	74 06                	je     0x403885
  40387f:	8b 45 08             	mov    0x8(%ebp),%eax
  403882:	89 45 fc             	mov    %eax,-0x4(%ebp)
  403885:	83 65 f8 00          	andl   $0x0,-0x8(%ebp)
  403889:	eb 4d                	jmp    0x4038d8
  40388b:	f6 c1 04             	test   $0x4,%cl
  40388e:	b8 ff ff ff 7f       	mov    $0x7fffffff,%eax
  403893:	75 1c                	jne    0x4038b1
  403895:	f6 c1 01             	test   $0x1,%cl
  403898:	75 3e                	jne    0x4038d8
  40389a:	83 e1 02             	and    $0x2,%ecx
  40389d:	74 09                	je     0x4038a8
  40389f:	81 7d f8 00 00 00 80 	cmpl   $0x80000000,-0x8(%ebp)
  4038a6:	77 09                	ja     0x4038b1
  4038a8:	85 c9                	test   %ecx,%ecx
  4038aa:	75 2c                	jne    0x4038d8
  4038ac:	39 45 f8             	cmp    %eax,-0x8(%ebp)
  4038af:	76 27                	jbe    0x4038d8
  4038b1:	f6 45 14 01          	testb  $0x1,0x14(%ebp)
  4038b5:	c7 05 00 99 40 00 22 	movl   $0x22,0x409900
  4038bc:	00 00 00 
  4038bf:	74 06                	je     0x4038c7
  4038c1:	83 4d f8 ff          	orl    $0xffffffff,-0x8(%ebp)
  4038c5:	eb 11                	jmp    0x4038d8
  4038c7:	8b 4d 14             	mov    0x14(%ebp),%ecx
  4038ca:	80 e1 02             	and    $0x2,%cl
  4038cd:	f6 d9                	neg    %cl
  4038cf:	1b c9                	sbb    %ecx,%ecx
  4038d1:	f7 d9                	neg    %ecx
  4038d3:	03 c8                	add    %eax,%ecx
  4038d5:	89 4d f8             	mov    %ecx,-0x8(%ebp)
  4038d8:	85 d2                	test   %edx,%edx
  4038da:	74 05                	je     0x4038e1
  4038dc:	8b 45 fc             	mov    -0x4(%ebp),%eax
  4038df:	89 02                	mov    %eax,(%edx)
  4038e1:	f6 45 14 02          	testb  $0x2,0x14(%ebp)
  4038e5:	74 08                	je     0x4038ef
  4038e7:	8b 45 f8             	mov    -0x8(%ebp),%eax
  4038ea:	f7 d8                	neg    %eax
  4038ec:	89 45 f8             	mov    %eax,-0x8(%ebp)
  4038ef:	8b 45 f8             	mov    -0x8(%ebp),%eax
  4038f2:	eb 0b                	jmp    0x4038ff
  4038f4:	8b 45 0c             	mov    0xc(%ebp),%eax
  4038f7:	85 c0                	test   %eax,%eax
  4038f9:	74 02                	je     0x4038fd
  4038fb:	89 38                	mov    %edi,(%eax)
  4038fd:	33 c0                	xor    %eax,%eax
  4038ff:	5f                   	pop    %edi
  403900:	5e                   	pop    %esi
  403901:	5b                   	pop    %ebx
  403902:	c9                   	leave  
  403903:	c3                   	ret    
  403904:	cc                   	int3   
  403905:	cc                   	int3   
  403906:	cc                   	int3   
  403907:	cc                   	int3   
  403908:	cc                   	int3   
  403909:	cc                   	int3   
  40390a:	cc                   	int3   
  40390b:	cc                   	int3   
  40390c:	cc                   	int3   
  40390d:	cc                   	int3   
  40390e:	cc                   	int3   
  40390f:	cc                   	int3   
  403910:	8d 42 ff             	lea    -0x1(%edx),%eax
  403913:	5b                   	pop    %ebx
  403914:	c3                   	ret    
  403915:	8d a4 24 00 00 00 00 	lea    0x0(%esp),%esp
  40391c:	8d 64 24 00          	lea    0x0(%esp),%esp
  403920:	33 c0                	xor    %eax,%eax
  403922:	8a 44 24 08          	mov    0x8(%esp),%al
  403926:	53                   	push   %ebx
  403927:	8b d8                	mov    %eax,%ebx
  403929:	c1 e0 08             	shl    $0x8,%eax
  40392c:	8b 54 24 08          	mov    0x8(%esp),%edx
  403930:	f7 c2 03 00 00 00    	test   $0x3,%edx
  403936:	74 13                	je     0x40394b
  403938:	8a 0a                	mov    (%edx),%cl
  40393a:	42                   	inc    %edx
  40393b:	38 d9                	cmp    %bl,%cl
  40393d:	74 d1                	je     0x403910
  40393f:	84 c9                	test   %cl,%cl
  403941:	74 51                	je     0x403994
  403943:	f7 c2 03 00 00 00    	test   $0x3,%edx
  403949:	75 ed                	jne    0x403938
  40394b:	0b d8                	or     %eax,%ebx
  40394d:	57                   	push   %edi
  40394e:	8b c3                	mov    %ebx,%eax
  403950:	c1 e3 10             	shl    $0x10,%ebx
  403953:	56                   	push   %esi
  403954:	0b d8                	or     %eax,%ebx
  403956:	8b 0a                	mov    (%edx),%ecx
  403958:	bf ff fe fe 7e       	mov    $0x7efefeff,%edi
  40395d:	8b c1                	mov    %ecx,%eax
  40395f:	8b f7                	mov    %edi,%esi
  403961:	33 cb                	xor    %ebx,%ecx
  403963:	03 f0                	add    %eax,%esi
  403965:	03 f9                	add    %ecx,%edi
  403967:	83 f1 ff             	xor    $0xffffffff,%ecx
  40396a:	83 f0 ff             	xor    $0xffffffff,%eax
  40396d:	33 cf                	xor    %edi,%ecx
  40396f:	33 c6                	xor    %esi,%eax
  403971:	83 c2 04             	add    $0x4,%edx
  403974:	81 e1 00 01 01 81    	and    $0x81010100,%ecx
  40397a:	75 1c                	jne    0x403998
  40397c:	25 00 01 01 81       	and    $0x81010100,%eax
  403981:	74 d3                	je     0x403956
  403983:	25 00 01 01 01       	and    $0x1010100,%eax
  403988:	75 08                	jne    0x403992
  40398a:	81 e6 00 00 00 80    	and    $0x80000000,%esi
  403990:	75 c4                	jne    0x403956
  403992:	5e                   	pop    %esi
  403993:	5f                   	pop    %edi
  403994:	5b                   	pop    %ebx
  403995:	33 c0                	xor    %eax,%eax
  403997:	c3                   	ret    
  403998:	8b 42 fc             	mov    -0x4(%edx),%eax
  40399b:	38 d8                	cmp    %bl,%al
  40399d:	74 36                	je     0x4039d5
  40399f:	84 c0                	test   %al,%al
  4039a1:	74 ef                	je     0x403992
  4039a3:	38 dc                	cmp    %bl,%ah
  4039a5:	74 27                	je     0x4039ce
  4039a7:	84 e4                	test   %ah,%ah
  4039a9:	74 e7                	je     0x403992
  4039ab:	c1 e8 10             	shr    $0x10,%eax
  4039ae:	38 d8                	cmp    %bl,%al
  4039b0:	74 15                	je     0x4039c7
  4039b2:	84 c0                	test   %al,%al
  4039b4:	74 dc                	je     0x403992
  4039b6:	38 dc                	cmp    %bl,%ah
  4039b8:	74 06                	je     0x4039c0
  4039ba:	84 e4                	test   %ah,%ah
  4039bc:	74 d4                	je     0x403992
  4039be:	eb 96                	jmp    0x403956
  4039c0:	5e                   	pop    %esi
  4039c1:	5f                   	pop    %edi
  4039c2:	8d 42 ff             	lea    -0x1(%edx),%eax
  4039c5:	5b                   	pop    %ebx
  4039c6:	c3                   	ret    
  4039c7:	8d 42 fe             	lea    -0x2(%edx),%eax
  4039ca:	5e                   	pop    %esi
  4039cb:	5f                   	pop    %edi
  4039cc:	5b                   	pop    %ebx
  4039cd:	c3                   	ret    
  4039ce:	8d 42 fd             	lea    -0x3(%edx),%eax
  4039d1:	5e                   	pop    %esi
  4039d2:	5f                   	pop    %edi
  4039d3:	5b                   	pop    %ebx
  4039d4:	c3                   	ret    
  4039d5:	8d 42 fc             	lea    -0x4(%edx),%eax
  4039d8:	5e                   	pop    %esi
  4039d9:	5f                   	pop    %edi
  4039da:	5b                   	pop    %ebx
  4039db:	c3                   	ret    
  4039dc:	cc                   	int3   
  4039dd:	cc                   	int3   
  4039de:	cc                   	int3   
  4039df:	cc                   	int3   
  4039e0:	8b 4c 24 08          	mov    0x8(%esp),%ecx
  4039e4:	57                   	push   %edi
  4039e5:	53                   	push   %ebx
  4039e6:	56                   	push   %esi
  4039e7:	8a 11                	mov    (%ecx),%dl
  4039e9:	8b 7c 24 10          	mov    0x10(%esp),%edi
  4039ed:	84 d2                	test   %dl,%dl
  4039ef:	74 69                	je     0x403a5a
  4039f1:	8a 71 01             	mov    0x1(%ecx),%dh
  4039f4:	84 f6                	test   %dh,%dh
  4039f6:	74 4f                	je     0x403a47
  4039f8:	8b f7                	mov    %edi,%esi
  4039fa:	8b 4c 24 14          	mov    0x14(%esp),%ecx
  4039fe:	8a 07                	mov    (%edi),%al
  403a00:	46                   	inc    %esi
  403a01:	38 d0                	cmp    %dl,%al
  403a03:	74 15                	je     0x403a1a
  403a05:	84 c0                	test   %al,%al
  403a07:	74 0b                	je     0x403a14
  403a09:	8a 06                	mov    (%esi),%al
  403a0b:	46                   	inc    %esi
  403a0c:	38 d0                	cmp    %dl,%al
  403a0e:	74 0a                	je     0x403a1a
  403a10:	84 c0                	test   %al,%al
  403a12:	75 f5                	jne    0x403a09
  403a14:	5e                   	pop    %esi
  403a15:	5b                   	pop    %ebx
  403a16:	5f                   	pop    %edi
  403a17:	33 c0                	xor    %eax,%eax
  403a19:	c3                   	ret    
  403a1a:	8a 06                	mov    (%esi),%al
  403a1c:	46                   	inc    %esi
  403a1d:	38 f0                	cmp    %dh,%al
  403a1f:	75 eb                	jne    0x403a0c
  403a21:	8d 7e ff             	lea    -0x1(%esi),%edi
  403a24:	8a 61 02             	mov    0x2(%ecx),%ah
  403a27:	84 e4                	test   %ah,%ah
  403a29:	74 28                	je     0x403a53
  403a2b:	8a 06                	mov    (%esi),%al
  403a2d:	83 c6 02             	add    $0x2,%esi
  403a30:	38 e0                	cmp    %ah,%al
  403a32:	75 c4                	jne    0x4039f8
  403a34:	8a 41 03             	mov    0x3(%ecx),%al
  403a37:	84 c0                	test   %al,%al
  403a39:	74 18                	je     0x403a53
  403a3b:	8a 66 ff             	mov    -0x1(%esi),%ah
  403a3e:	83 c1 02             	add    $0x2,%ecx
  403a41:	38 e0                	cmp    %ah,%al
  403a43:	74 df                	je     0x403a24
  403a45:	eb b1                	jmp    0x4039f8
  403a47:	33 c0                	xor    %eax,%eax
  403a49:	5e                   	pop    %esi
  403a4a:	5b                   	pop    %ebx
  403a4b:	5f                   	pop    %edi
  403a4c:	8a c2                	mov    %dl,%al
  403a4e:	e9 d3 fe ff ff       	jmp    0x403926
  403a53:	8d 47 ff             	lea    -0x1(%edi),%eax
  403a56:	5e                   	pop    %esi
  403a57:	5b                   	pop    %ebx
  403a58:	5f                   	pop    %edi
  403a59:	c3                   	ret    
  403a5a:	8b c7                	mov    %edi,%eax
  403a5c:	5e                   	pop    %esi
  403a5d:	5b                   	pop    %ebx
  403a5e:	5f                   	pop    %edi
  403a5f:	c3                   	ret    
  403a60:	55                   	push   %ebp
  403a61:	8b ec                	mov    %esp,%ebp
  403a63:	57                   	push   %edi
  403a64:	56                   	push   %esi
  403a65:	53                   	push   %ebx
  403a66:	8b 4d 10             	mov    0x10(%ebp),%ecx
  403a69:	e3 26                	jecxz  0x403a91
  403a6b:	8b d9                	mov    %ecx,%ebx
  403a6d:	8b 7d 08             	mov    0x8(%ebp),%edi
  403a70:	8b f7                	mov    %edi,%esi
  403a72:	33 c0                	xor    %eax,%eax
  403a74:	f2 ae                	repnz scas %es:(%edi),%al
  403a76:	f7 d9                	neg    %ecx
  403a78:	03 cb                	add    %ebx,%ecx
  403a7a:	8b fe                	mov    %esi,%edi
  403a7c:	8b 75 0c             	mov    0xc(%ebp),%esi
  403a7f:	f3 a6                	repz cmpsb %es:(%edi),%ds:(%esi)
  403a81:	8a 46 ff             	mov    -0x1(%esi),%al
  403a84:	33 c9                	xor    %ecx,%ecx
  403a86:	3a 47 ff             	cmp    -0x1(%edi),%al
  403a89:	77 04                	ja     0x403a8f
  403a8b:	74 04                	je     0x403a91
  403a8d:	49                   	dec    %ecx
  403a8e:	49                   	dec    %ecx
  403a8f:	f7 d1                	not    %ecx
  403a91:	8b c1                	mov    %ecx,%eax
  403a93:	5b                   	pop    %ebx
  403a94:	5e                   	pop    %esi
  403a95:	5f                   	pop    %edi
  403a96:	c9                   	leave  
  403a97:	c3                   	ret    
  403a98:	cc                   	int3   
  403a99:	cc                   	int3   
  403a9a:	cc                   	int3   
  403a9b:	cc                   	int3   
  403a9c:	cc                   	int3   
  403a9d:	cc                   	int3   
  403a9e:	cc                   	int3   
  403a9f:	cc                   	int3   
  403aa0:	51                   	push   %ecx
  403aa1:	3d 00 10 00 00       	cmp    $0x1000,%eax
  403aa6:	8d 4c 24 08          	lea    0x8(%esp),%ecx
  403aaa:	72 14                	jb     0x403ac0
  403aac:	81 e9 00 10 00 00    	sub    $0x1000,%ecx
  403ab2:	2d 00 10 00 00       	sub    $0x1000,%eax
  403ab7:	85 01                	test   %eax,(%ecx)
  403ab9:	3d 00 10 00 00       	cmp    $0x1000,%eax
  403abe:	73 ec                	jae    0x403aac
  403ac0:	2b c8                	sub    %eax,%ecx
  403ac2:	8b c4                	mov    %esp,%eax
  403ac4:	85 01                	test   %eax,(%ecx)
  403ac6:	8b e1                	mov    %ecx,%esp
  403ac8:	8b 08                	mov    (%eax),%ecx
  403aca:	8b 40 04             	mov    0x4(%eax),%eax
  403acd:	50                   	push   %eax
  403ace:	c3                   	ret    
  403acf:	68 40 01 00 00       	push   $0x140
  403ad4:	6a 00                	push   $0x0
  403ad6:	ff 35 e8 9c 40 00    	pushl  0x409ce8
  403adc:	ff 15 64 60 40 00    	call   *0x406064
  403ae2:	85 c0                	test   %eax,%eax
  403ae4:	a3 b4 9a 40 00       	mov    %eax,0x409ab4
  403ae9:	75 01                	jne    0x403aec
  403aeb:	c3                   	ret    
  403aec:	8b 4c 24 04          	mov    0x4(%esp),%ecx
  403af0:	83 25 ac 9a 40 00 00 	andl   $0x0,0x409aac
  403af7:	83 25 b0 9a 40 00 00 	andl   $0x0,0x409ab0
  403afe:	6a 01                	push   $0x1
  403b00:	a3 a8 9a 40 00       	mov    %eax,0x409aa8
  403b05:	89 0d b8 9a 40 00    	mov    %ecx,0x409ab8
  403b0b:	c7 05 a0 9a 40 00 10 	movl   $0x10,0x409aa0
  403b12:	00 00 00 
  403b15:	58                   	pop    %eax
  403b16:	c3                   	ret    
  403b17:	a1 b0 9a 40 00       	mov    0x409ab0,%eax
  403b1c:	8d 0c 80             	lea    (%eax,%eax,4),%ecx
  403b1f:	a1 b4 9a 40 00       	mov    0x409ab4,%eax
  403b24:	8d 0c 88             	lea    (%eax,%ecx,4),%ecx
  403b27:	3b c1                	cmp    %ecx,%eax
  403b29:	73 14                	jae    0x403b3f
  403b2b:	8b 54 24 04          	mov    0x4(%esp),%edx
  403b2f:	2b 50 0c             	sub    0xc(%eax),%edx
  403b32:	81 fa 00 00 10 00    	cmp    $0x100000,%edx
  403b38:	72 07                	jb     0x403b41
  403b3a:	83 c0 14             	add    $0x14,%eax
  403b3d:	eb e8                	jmp    0x403b27
  403b3f:	33 c0                	xor    %eax,%eax
  403b41:	c3                   	ret    
  403b42:	55                   	push   %ebp
  403b43:	8b ec                	mov    %esp,%ebp
  403b45:	83 ec 10             	sub    $0x10,%esp
  403b48:	8b 4d 08             	mov    0x8(%ebp),%ecx
  403b4b:	53                   	push   %ebx
  403b4c:	56                   	push   %esi
  403b4d:	8b 75 0c             	mov    0xc(%ebp),%esi
  403b50:	8b 41 10             	mov    0x10(%ecx),%eax
  403b53:	57                   	push   %edi
  403b54:	8b fe                	mov    %esi,%edi
  403b56:	83 c6 fc             	add    $0xfffffffc,%esi
  403b59:	2b 79 0c             	sub    0xc(%ecx),%edi
  403b5c:	c1 ef 0f             	shr    $0xf,%edi
  403b5f:	8b cf                	mov    %edi,%ecx
  403b61:	69 c9 04 02 00 00    	imul   $0x204,%ecx,%ecx
  403b67:	8d 8c 01 44 01 00 00 	lea    0x144(%ecx,%eax,1),%ecx
  403b6e:	89 4d f0             	mov    %ecx,-0x10(%ebp)
  403b71:	8b 0e                	mov    (%esi),%ecx
  403b73:	49                   	dec    %ecx
  403b74:	f6 c1 01             	test   $0x1,%cl
  403b77:	89 4d fc             	mov    %ecx,-0x4(%ebp)
  403b7a:	0f 85 e6 02 00 00    	jne    0x403e66
  403b80:	8b 14 31             	mov    (%ecx,%esi,1),%edx
  403b83:	8d 1c 31             	lea    (%ecx,%esi,1),%ebx
  403b86:	89 55 f4             	mov    %edx,-0xc(%ebp)
  403b89:	8b 56 fc             	mov    -0x4(%esi),%edx
  403b8c:	89 55 f8             	mov    %edx,-0x8(%ebp)
  403b8f:	8b 55 f4             	mov    -0xc(%ebp),%edx
  403b92:	f6 c2 01             	test   $0x1,%dl
  403b95:	89 5d 0c             	mov    %ebx,0xc(%ebp)
  403b98:	75 7e                	jne    0x403c18
  403b9a:	c1 fa 04             	sar    $0x4,%edx
  403b9d:	4a                   	dec    %edx
  403b9e:	83 fa 3f             	cmp    $0x3f,%edx
  403ba1:	76 03                	jbe    0x403ba6
  403ba3:	6a 3f                	push   $0x3f
  403ba5:	5a                   	pop    %edx
  403ba6:	8b 4b 04             	mov    0x4(%ebx),%ecx
  403ba9:	3b 4b 08             	cmp    0x8(%ebx),%ecx
  403bac:	75 4c                	jne    0x403bfa
  403bae:	83 fa 20             	cmp    $0x20,%edx
  403bb1:	73 1e                	jae    0x403bd1
  403bb3:	bb 00 00 00 80       	mov    $0x80000000,%ebx
  403bb8:	8b ca                	mov    %edx,%ecx
  403bba:	d3 eb                	shr    %cl,%ebx
  403bbc:	8d 4c 02 04          	lea    0x4(%edx,%eax,1),%ecx
  403bc0:	f7 d3                	not    %ebx
  403bc2:	21 5c b8 44          	and    %ebx,0x44(%eax,%edi,4)
  403bc6:	fe 09                	decb   (%ecx)
  403bc8:	75 28                	jne    0x403bf2
  403bca:	8b 4d 08             	mov    0x8(%ebp),%ecx
  403bcd:	21 19                	and    %ebx,(%ecx)
  403bcf:	eb 21                	jmp    0x403bf2
  403bd1:	8d 4a e0             	lea    -0x20(%edx),%ecx
  403bd4:	bb 00 00 00 80       	mov    $0x80000000,%ebx
  403bd9:	d3 eb                	shr    %cl,%ebx
  403bdb:	8d 4c 02 04          	lea    0x4(%edx,%eax,1),%ecx
  403bdf:	f7 d3                	not    %ebx
  403be1:	21 9c b8 c4 00 00 00 	and    %ebx,0xc4(%eax,%edi,4)
  403be8:	fe 09                	decb   (%ecx)
  403bea:	75 06                	jne    0x403bf2
  403bec:	8b 4d 08             	mov    0x8(%ebp),%ecx
  403bef:	21 59 04             	and    %ebx,0x4(%ecx)
  403bf2:	8b 4d fc             	mov    -0x4(%ebp),%ecx
  403bf5:	8b 5d 0c             	mov    0xc(%ebp),%ebx
  403bf8:	eb 03                	jmp    0x403bfd
  403bfa:	8b 4d fc             	mov    -0x4(%ebp),%ecx
  403bfd:	8b 53 08             	mov    0x8(%ebx),%edx
  403c00:	8b 5b 04             	mov    0x4(%ebx),%ebx
  403c03:	03 4d f4             	add    -0xc(%ebp),%ecx
  403c06:	89 5a 04             	mov    %ebx,0x4(%edx)
  403c09:	8b 55 0c             	mov    0xc(%ebp),%edx
  403c0c:	89 4d fc             	mov    %ecx,-0x4(%ebp)
  403c0f:	8b 5a 04             	mov    0x4(%edx),%ebx
  403c12:	8b 52 08             	mov    0x8(%edx),%edx
  403c15:	89 53 08             	mov    %edx,0x8(%ebx)
  403c18:	8b d1                	mov    %ecx,%edx
  403c1a:	c1 fa 04             	sar    $0x4,%edx
  403c1d:	4a                   	dec    %edx
  403c1e:	83 fa 3f             	cmp    $0x3f,%edx
  403c21:	76 03                	jbe    0x403c26
  403c23:	6a 3f                	push   $0x3f
  403c25:	5a                   	pop    %edx
  403c26:	8b 5d f8             	mov    -0x8(%ebp),%ebx
  403c29:	83 e3 01             	and    $0x1,%ebx
  403c2c:	89 5d f4             	mov    %ebx,-0xc(%ebp)
  403c2f:	0f 85 94 00 00 00    	jne    0x403cc9
  403c35:	2b 75 f8             	sub    -0x8(%ebp),%esi
  403c38:	8b 5d f8             	mov    -0x8(%ebp),%ebx
  403c3b:	c1 fb 04             	sar    $0x4,%ebx
  403c3e:	6a 3f                	push   $0x3f
  403c40:	89 75 0c             	mov    %esi,0xc(%ebp)
  403c43:	4b                   	dec    %ebx
  403c44:	5e                   	pop    %esi
  403c45:	3b de                	cmp    %esi,%ebx
  403c47:	76 02                	jbe    0x403c4b
  403c49:	8b de                	mov    %esi,%ebx
  403c4b:	03 4d f8             	add    -0x8(%ebp),%ecx
  403c4e:	8b d1                	mov    %ecx,%edx
  403c50:	89 4d fc             	mov    %ecx,-0x4(%ebp)
  403c53:	c1 fa 04             	sar    $0x4,%edx
  403c56:	4a                   	dec    %edx
  403c57:	3b d6                	cmp    %esi,%edx
  403c59:	76 02                	jbe    0x403c5d
  403c5b:	8b d6                	mov    %esi,%edx
  403c5d:	3b da                	cmp    %edx,%ebx
  403c5f:	74 63                	je     0x403cc4
  403c61:	8b 4d 0c             	mov    0xc(%ebp),%ecx
  403c64:	8b 71 04             	mov    0x4(%ecx),%esi
  403c67:	3b 71 08             	cmp    0x8(%ecx),%esi
  403c6a:	75 40                	jne    0x403cac
  403c6c:	83 fb 20             	cmp    $0x20,%ebx
  403c6f:	73 1c                	jae    0x403c8d
  403c71:	be 00 00 00 80       	mov    $0x80000000,%esi
  403c76:	8b cb                	mov    %ebx,%ecx
  403c78:	d3 ee                	shr    %cl,%esi
  403c7a:	f7 d6                	not    %esi
  403c7c:	21 74 b8 44          	and    %esi,0x44(%eax,%edi,4)
  403c80:	fe 4c 03 04          	decb   0x4(%ebx,%eax,1)
  403c84:	75 26                	jne    0x403cac
  403c86:	8b 4d 08             	mov    0x8(%ebp),%ecx
  403c89:	21 31                	and    %esi,(%ecx)
  403c8b:	eb 1f                	jmp    0x403cac
  403c8d:	8d 4b e0             	lea    -0x20(%ebx),%ecx
  403c90:	be 00 00 00 80       	mov    $0x80000000,%esi
  403c95:	d3 ee                	shr    %cl,%esi
  403c97:	f7 d6                	not    %esi
  403c99:	21 b4 b8 c4 00 00 00 	and    %esi,0xc4(%eax,%edi,4)
  403ca0:	fe 4c 03 04          	decb   0x4(%ebx,%eax,1)
  403ca4:	75 06                	jne    0x403cac
  403ca6:	8b 4d 08             	mov    0x8(%ebp),%ecx
  403ca9:	21 71 04             	and    %esi,0x4(%ecx)
  403cac:	8b 4d 0c             	mov    0xc(%ebp),%ecx
  403caf:	8b 71 08             	mov    0x8(%ecx),%esi
  403cb2:	8b 49 04             	mov    0x4(%ecx),%ecx
  403cb5:	89 4e 04             	mov    %ecx,0x4(%esi)
  403cb8:	8b 4d 0c             	mov    0xc(%ebp),%ecx
  403cbb:	8b 71 04             	mov    0x4(%ecx),%esi
  403cbe:	8b 49 08             	mov    0x8(%ecx),%ecx
  403cc1:	89 4e 08             	mov    %ecx,0x8(%esi)
  403cc4:	8b 75 0c             	mov    0xc(%ebp),%esi
  403cc7:	eb 03                	jmp    0x403ccc
  403cc9:	8b 5d 08             	mov    0x8(%ebp),%ebx
  403ccc:	83 7d f4 00          	cmpl   $0x0,-0xc(%ebp)
  403cd0:	75 08                	jne    0x403cda
  403cd2:	3b da                	cmp    %edx,%ebx
  403cd4:	0f 84 81 00 00 00    	je     0x403d5b
  403cda:	8b 4d f0             	mov    -0x10(%ebp),%ecx
  403cdd:	8b 5c d1 04          	mov    0x4(%ecx,%edx,8),%ebx
  403ce1:	8d 0c d1             	lea    (%ecx,%edx,8),%ecx
  403ce4:	89 5e 04             	mov    %ebx,0x4(%esi)
  403ce7:	89 4e 08             	mov    %ecx,0x8(%esi)
  403cea:	89 71 04             	mov    %esi,0x4(%ecx)
  403ced:	8b 4e 04             	mov    0x4(%esi),%ecx
  403cf0:	89 71 08             	mov    %esi,0x8(%ecx)
  403cf3:	8b 4e 04             	mov    0x4(%esi),%ecx
  403cf6:	3b 4e 08             	cmp    0x8(%esi),%ecx
  403cf9:	75 60                	jne    0x403d5b
  403cfb:	8a 4c 02 04          	mov    0x4(%edx,%eax,1),%cl
  403cff:	83 fa 20             	cmp    $0x20,%edx
  403d02:	88 4d 0f             	mov    %cl,0xf(%ebp)
  403d05:	fe c1                	inc    %cl
  403d07:	88 4c 02 04          	mov    %cl,0x4(%edx,%eax,1)
  403d0b:	73 25                	jae    0x403d32
  403d0d:	80 7d 0f 00          	cmpb   $0x0,0xf(%ebp)
  403d11:	75 0e                	jne    0x403d21
  403d13:	bb 00 00 00 80       	mov    $0x80000000,%ebx
  403d18:	8b ca                	mov    %edx,%ecx
  403d1a:	d3 eb                	shr    %cl,%ebx
  403d1c:	8b 4d 08             	mov    0x8(%ebp),%ecx
  403d1f:	09 19                	or     %ebx,(%ecx)
  403d21:	bb 00 00 00 80       	mov    $0x80000000,%ebx
  403d26:	8b ca                	mov    %edx,%ecx
  403d28:	d3 eb                	shr    %cl,%ebx
  403d2a:	8d 44 b8 44          	lea    0x44(%eax,%edi,4),%eax
  403d2e:	09 18                	or     %ebx,(%eax)
  403d30:	eb 29                	jmp    0x403d5b
  403d32:	80 7d 0f 00          	cmpb   $0x0,0xf(%ebp)
  403d36:	75 10                	jne    0x403d48
  403d38:	8d 4a e0             	lea    -0x20(%edx),%ecx
  403d3b:	bb 00 00 00 80       	mov    $0x80000000,%ebx
  403d40:	d3 eb                	shr    %cl,%ebx
  403d42:	8b 4d 08             	mov    0x8(%ebp),%ecx
  403d45:	09 59 04             	or     %ebx,0x4(%ecx)
  403d48:	8d 4a e0             	lea    -0x20(%edx),%ecx
  403d4b:	ba 00 00 00 80       	mov    $0x80000000,%edx
  403d50:	d3 ea                	shr    %cl,%edx
  403d52:	8d 84 b8 c4 00 00 00 	lea    0xc4(%eax,%edi,4),%eax
  403d59:	09 10                	or     %edx,(%eax)
  403d5b:	8b 45 fc             	mov    -0x4(%ebp),%eax
  403d5e:	89 06                	mov    %eax,(%esi)
  403d60:	89 44 30 fc          	mov    %eax,-0x4(%eax,%esi,1)
  403d64:	8b 45 f0             	mov    -0x10(%ebp),%eax
  403d67:	ff 08                	decl   (%eax)
  403d69:	0f 85 f7 00 00 00    	jne    0x403e66
  403d6f:	a1 ac 9a 40 00       	mov    0x409aac,%eax
  403d74:	85 c0                	test   %eax,%eax
  403d76:	0f 84 dc 00 00 00    	je     0x403e58
  403d7c:	8b 0d a4 9a 40 00    	mov    0x409aa4,%ecx
  403d82:	8b 35 54 60 40 00    	mov    0x406054,%esi
  403d88:	c1 e1 0f             	shl    $0xf,%ecx
  403d8b:	03 48 0c             	add    0xc(%eax),%ecx
  403d8e:	bb 00 80 00 00       	mov    $0x8000,%ebx
  403d93:	68 00 40 00 00       	push   $0x4000
  403d98:	53                   	push   %ebx
  403d99:	51                   	push   %ecx
  403d9a:	ff d6                	call   *%esi
  403d9c:	8b 0d a4 9a 40 00    	mov    0x409aa4,%ecx
  403da2:	a1 ac 9a 40 00       	mov    0x409aac,%eax
  403da7:	ba 00 00 00 80       	mov    $0x80000000,%edx
  403dac:	d3 ea                	shr    %cl,%edx
  403dae:	09 50 08             	or     %edx,0x8(%eax)
  403db1:	a1 ac 9a 40 00       	mov    0x409aac,%eax
  403db6:	8b 0d a4 9a 40 00    	mov    0x409aa4,%ecx
  403dbc:	8b 40 10             	mov    0x10(%eax),%eax
  403dbf:	83 a4 88 c4 00 00 00 	andl   $0x0,0xc4(%eax,%ecx,4)
  403dc6:	00 
  403dc7:	a1 ac 9a 40 00       	mov    0x409aac,%eax
  403dcc:	8b 40 10             	mov    0x10(%eax),%eax
  403dcf:	fe 48 43             	decb   0x43(%eax)
  403dd2:	a1 ac 9a 40 00       	mov    0x409aac,%eax
  403dd7:	8b 48 10             	mov    0x10(%eax),%ecx
  403dda:	80 79 43 00          	cmpb   $0x0,0x43(%ecx)
  403dde:	75 09                	jne    0x403de9
  403de0:	83 60 04 fe          	andl   $0xfffffffe,0x4(%eax)
  403de4:	a1 ac 9a 40 00       	mov    0x409aac,%eax
  403de9:	83 78 08 ff          	cmpl   $0xffffffff,0x8(%eax)
  403ded:	75 69                	jne    0x403e58
  403def:	53                   	push   %ebx
  403df0:	6a 00                	push   $0x0
  403df2:	ff 70 0c             	pushl  0xc(%eax)
  403df5:	ff d6                	call   *%esi
  403df7:	a1 ac 9a 40 00       	mov    0x409aac,%eax
  403dfc:	ff 70 10             	pushl  0x10(%eax)
  403dff:	6a 00                	push   $0x0
  403e01:	ff 35 e8 9c 40 00    	pushl  0x409ce8
  403e07:	ff 15 58 60 40 00    	call   *0x406058
  403e0d:	a1 b0 9a 40 00       	mov    0x409ab0,%eax
  403e12:	8b 15 b4 9a 40 00    	mov    0x409ab4,%edx
  403e18:	8d 04 80             	lea    (%eax,%eax,4),%eax
  403e1b:	c1 e0 02             	shl    $0x2,%eax
  403e1e:	8b c8                	mov    %eax,%ecx
  403e20:	a1 ac 9a 40 00       	mov    0x409aac,%eax
  403e25:	2b c8                	sub    %eax,%ecx
  403e27:	8d 4c 11 ec          	lea    -0x14(%ecx,%edx,1),%ecx
  403e2b:	51                   	push   %ecx
  403e2c:	8d 48 14             	lea    0x14(%eax),%ecx
  403e2f:	51                   	push   %ecx
  403e30:	50                   	push   %eax
  403e31:	e8 3a 15 00 00       	call   0x405370
  403e36:	8b 45 08             	mov    0x8(%ebp),%eax
  403e39:	83 c4 0c             	add    $0xc,%esp
  403e3c:	ff 0d b0 9a 40 00    	decl   0x409ab0
  403e42:	3b 05 ac 9a 40 00    	cmp    0x409aac,%eax
  403e48:	76 04                	jbe    0x403e4e
  403e4a:	83 6d 08 14          	subl   $0x14,0x8(%ebp)
  403e4e:	a1 b4 9a 40 00       	mov    0x409ab4,%eax
  403e53:	a3 a8 9a 40 00       	mov    %eax,0x409aa8
  403e58:	8b 45 08             	mov    0x8(%ebp),%eax
  403e5b:	89 3d a4 9a 40 00    	mov    %edi,0x409aa4
  403e61:	a3 ac 9a 40 00       	mov    %eax,0x409aac
  403e66:	5f                   	pop    %edi
  403e67:	5e                   	pop    %esi
  403e68:	5b                   	pop    %ebx
  403e69:	c9                   	leave  
  403e6a:	c3                   	ret    
  403e6b:	55                   	push   %ebp
  403e6c:	8b ec                	mov    %esp,%ebp
  403e6e:	83 ec 14             	sub    $0x14,%esp
  403e71:	a1 b0 9a 40 00       	mov    0x409ab0,%eax
  403e76:	8b 15 b4 9a 40 00    	mov    0x409ab4,%edx
  403e7c:	53                   	push   %ebx
  403e7d:	56                   	push   %esi
  403e7e:	8d 04 80             	lea    (%eax,%eax,4),%eax
  403e81:	57                   	push   %edi
  403e82:	8d 3c 82             	lea    (%edx,%eax,4),%edi
  403e85:	8b 45 08             	mov    0x8(%ebp),%eax
  403e88:	89 7d fc             	mov    %edi,-0x4(%ebp)
  403e8b:	8d 48 17             	lea    0x17(%eax),%ecx
  403e8e:	83 e1 f0             	and    $0xfffffff0,%ecx
  403e91:	89 4d f0             	mov    %ecx,-0x10(%ebp)
  403e94:	c1 f9 04             	sar    $0x4,%ecx
  403e97:	49                   	dec    %ecx
  403e98:	83 f9 20             	cmp    $0x20,%ecx
  403e9b:	7d 0e                	jge    0x403eab
  403e9d:	83 ce ff             	or     $0xffffffff,%esi
  403ea0:	d3 ee                	shr    %cl,%esi
  403ea2:	83 4d f8 ff          	orl    $0xffffffff,-0x8(%ebp)
  403ea6:	89 75 f4             	mov    %esi,-0xc(%ebp)
  403ea9:	eb 10                	jmp    0x403ebb
  403eab:	83 c1 e0             	add    $0xffffffe0,%ecx
  403eae:	83 c8 ff             	or     $0xffffffff,%eax
  403eb1:	33 f6                	xor    %esi,%esi
  403eb3:	d3 e8                	shr    %cl,%eax
  403eb5:	89 75 f4             	mov    %esi,-0xc(%ebp)
  403eb8:	89 45 f8             	mov    %eax,-0x8(%ebp)
  403ebb:	a1 a8 9a 40 00       	mov    0x409aa8,%eax
  403ec0:	8b d8                	mov    %eax,%ebx
  403ec2:	3b df                	cmp    %edi,%ebx
  403ec4:	89 5d 08             	mov    %ebx,0x8(%ebp)
  403ec7:	73 19                	jae    0x403ee2
  403ec9:	8b 4b 04             	mov    0x4(%ebx),%ecx
  403ecc:	8b 3b                	mov    (%ebx),%edi
  403ece:	23 4d f8             	and    -0x8(%ebp),%ecx
  403ed1:	23 fe                	and    %esi,%edi
  403ed3:	0b cf                	or     %edi,%ecx
  403ed5:	75 0b                	jne    0x403ee2
  403ed7:	83 c3 14             	add    $0x14,%ebx
  403eda:	3b 5d fc             	cmp    -0x4(%ebp),%ebx
  403edd:	89 5d 08             	mov    %ebx,0x8(%ebp)
  403ee0:	72 e7                	jb     0x403ec9
  403ee2:	3b 5d fc             	cmp    -0x4(%ebp),%ebx
  403ee5:	75 79                	jne    0x403f60
  403ee7:	8b da                	mov    %edx,%ebx
  403ee9:	3b d8                	cmp    %eax,%ebx
  403eeb:	89 5d 08             	mov    %ebx,0x8(%ebp)
  403eee:	73 15                	jae    0x403f05
  403ef0:	8b 4b 04             	mov    0x4(%ebx),%ecx
  403ef3:	8b 3b                	mov    (%ebx),%edi
  403ef5:	23 4d f8             	and    -0x8(%ebp),%ecx
  403ef8:	23 fe                	and    %esi,%edi
  403efa:	0b cf                	or     %edi,%ecx
  403efc:	75 05                	jne    0x403f03
  403efe:	83 c3 14             	add    $0x14,%ebx
  403f01:	eb e6                	jmp    0x403ee9
  403f03:	3b d8                	cmp    %eax,%ebx
  403f05:	75 59                	jne    0x403f60
  403f07:	3b 5d fc             	cmp    -0x4(%ebp),%ebx
  403f0a:	73 11                	jae    0x403f1d
  403f0c:	83 7b 08 00          	cmpl   $0x0,0x8(%ebx)
  403f10:	75 08                	jne    0x403f1a
  403f12:	83 c3 14             	add    $0x14,%ebx
  403f15:	89 5d 08             	mov    %ebx,0x8(%ebp)
  403f18:	eb ed                	jmp    0x403f07
  403f1a:	3b 5d fc             	cmp    -0x4(%ebp),%ebx
  403f1d:	75 26                	jne    0x403f45
  403f1f:	8b da                	mov    %edx,%ebx
  403f21:	3b d8                	cmp    %eax,%ebx
  403f23:	89 5d 08             	mov    %ebx,0x8(%ebp)
  403f26:	73 0d                	jae    0x403f35
  403f28:	83 7b 08 00          	cmpl   $0x0,0x8(%ebx)
  403f2c:	75 05                	jne    0x403f33
  403f2e:	83 c3 14             	add    $0x14,%ebx
  403f31:	eb ee                	jmp    0x403f21
  403f33:	3b d8                	cmp    %eax,%ebx
  403f35:	75 0e                	jne    0x403f45
  403f37:	e8 38 02 00 00       	call   0x404174
  403f3c:	8b d8                	mov    %eax,%ebx
  403f3e:	85 db                	test   %ebx,%ebx
  403f40:	89 5d 08             	mov    %ebx,0x8(%ebp)
  403f43:	74 14                	je     0x403f59
  403f45:	53                   	push   %ebx
  403f46:	e8 da 02 00 00       	call   0x404225
  403f4b:	59                   	pop    %ecx
  403f4c:	8b 4b 10             	mov    0x10(%ebx),%ecx
  403f4f:	89 01                	mov    %eax,(%ecx)
  403f51:	8b 43 10             	mov    0x10(%ebx),%eax
  403f54:	83 38 ff             	cmpl   $0xffffffff,(%eax)
  403f57:	75 07                	jne    0x403f60
  403f59:	33 c0                	xor    %eax,%eax
  403f5b:	e9 0f 02 00 00       	jmp    0x40416f
  403f60:	89 1d a8 9a 40 00    	mov    %ebx,0x409aa8
  403f66:	8b 43 10             	mov    0x10(%ebx),%eax
  403f69:	8b 10                	mov    (%eax),%edx
  403f6b:	83 fa ff             	cmp    $0xffffffff,%edx
  403f6e:	89 55 fc             	mov    %edx,-0x4(%ebp)
  403f71:	74 14                	je     0x403f87
  403f73:	8b 8c 90 c4 00 00 00 	mov    0xc4(%eax,%edx,4),%ecx
  403f7a:	8b 7c 90 44          	mov    0x44(%eax,%edx,4),%edi
  403f7e:	23 4d f8             	and    -0x8(%ebp),%ecx
  403f81:	23 fe                	and    %esi,%edi
  403f83:	0b cf                	or     %edi,%ecx
  403f85:	75 37                	jne    0x403fbe
  403f87:	8b 90 c4 00 00 00    	mov    0xc4(%eax),%edx
  403f8d:	8b 70 44             	mov    0x44(%eax),%esi
  403f90:	23 55 f8             	and    -0x8(%ebp),%edx
  403f93:	23 75 f4             	and    -0xc(%ebp),%esi
  403f96:	83 65 fc 00          	andl   $0x0,-0x4(%ebp)
  403f9a:	8d 48 44             	lea    0x44(%eax),%ecx
  403f9d:	0b d6                	or     %esi,%edx
  403f9f:	8b 75 f4             	mov    -0xc(%ebp),%esi
  403fa2:	75 17                	jne    0x403fbb
  403fa4:	8b 91 84 00 00 00    	mov    0x84(%ecx),%edx
  403faa:	ff 45 fc             	incl   -0x4(%ebp)
  403fad:	23 55 f8             	and    -0x8(%ebp),%edx
  403fb0:	83 c1 04             	add    $0x4,%ecx
  403fb3:	8b fe                	mov    %esi,%edi
  403fb5:	23 39                	and    (%ecx),%edi
  403fb7:	0b d7                	or     %edi,%edx
  403fb9:	74 e9                	je     0x403fa4
  403fbb:	8b 55 fc             	mov    -0x4(%ebp),%edx
  403fbe:	8b ca                	mov    %edx,%ecx
  403fc0:	33 ff                	xor    %edi,%edi
  403fc2:	69 c9 04 02 00 00    	imul   $0x204,%ecx,%ecx
  403fc8:	8d 8c 01 44 01 00 00 	lea    0x144(%ecx,%eax,1),%ecx
  403fcf:	89 4d f4             	mov    %ecx,-0xc(%ebp)
  403fd2:	8b 4c 90 44          	mov    0x44(%eax,%edx,4),%ecx
  403fd6:	23 ce                	and    %esi,%ecx
  403fd8:	75 0d                	jne    0x403fe7
  403fda:	8b 8c 90 c4 00 00 00 	mov    0xc4(%eax,%edx,4),%ecx
  403fe1:	6a 20                	push   $0x20
  403fe3:	23 4d f8             	and    -0x8(%ebp),%ecx
  403fe6:	5f                   	pop    %edi
  403fe7:	85 c9                	test   %ecx,%ecx
  403fe9:	7c 05                	jl     0x403ff0
  403feb:	d1 e1                	shl    %ecx
  403fed:	47                   	inc    %edi
  403fee:	eb f7                	jmp    0x403fe7
  403ff0:	8b 4d f4             	mov    -0xc(%ebp),%ecx
  403ff3:	8b 54 f9 04          	mov    0x4(%ecx,%edi,8),%edx
  403ff7:	8b 0a                	mov    (%edx),%ecx
  403ff9:	2b 4d f0             	sub    -0x10(%ebp),%ecx
  403ffc:	8b f1                	mov    %ecx,%esi
  403ffe:	89 4d f8             	mov    %ecx,-0x8(%ebp)
  404001:	c1 fe 04             	sar    $0x4,%esi
  404004:	4e                   	dec    %esi
  404005:	83 fe 3f             	cmp    $0x3f,%esi
  404008:	7e 03                	jle    0x40400d
  40400a:	6a 3f                	push   $0x3f
  40400c:	5e                   	pop    %esi
  40400d:	3b f7                	cmp    %edi,%esi
  40400f:	0f 84 0d 01 00 00    	je     0x404122
  404015:	8b 4a 04             	mov    0x4(%edx),%ecx
  404018:	3b 4a 08             	cmp    0x8(%edx),%ecx
  40401b:	75 61                	jne    0x40407e
  40401d:	83 ff 20             	cmp    $0x20,%edi
  404020:	7d 2b                	jge    0x40404d
  404022:	bb 00 00 00 80       	mov    $0x80000000,%ebx
  404027:	8b cf                	mov    %edi,%ecx
  404029:	d3 eb                	shr    %cl,%ebx
  40402b:	8b 4d fc             	mov    -0x4(%ebp),%ecx
  40402e:	8d 7c 38 04          	lea    0x4(%eax,%edi,1),%edi
  404032:	f7 d3                	not    %ebx
  404034:	89 5d ec             	mov    %ebx,-0x14(%ebp)
  404037:	23 5c 88 44          	and    0x44(%eax,%ecx,4),%ebx
  40403b:	89 5c 88 44          	mov    %ebx,0x44(%eax,%ecx,4)
  40403f:	fe 0f                	decb   (%edi)
  404041:	75 38                	jne    0x40407b
  404043:	8b 5d 08             	mov    0x8(%ebp),%ebx
  404046:	8b 4d ec             	mov    -0x14(%ebp),%ecx
  404049:	21 0b                	and    %ecx,(%ebx)
  40404b:	eb 31                	jmp    0x40407e
  40404d:	8d 4f e0             	lea    -0x20(%edi),%ecx
  404050:	bb 00 00 00 80       	mov    $0x80000000,%ebx
  404055:	d3 eb                	shr    %cl,%ebx
  404057:	8b 4d fc             	mov    -0x4(%ebp),%ecx
  40405a:	8d 7c 38 04          	lea    0x4(%eax,%edi,1),%edi
  40405e:	8d 8c 88 c4 00 00 00 	lea    0xc4(%eax,%ecx,4),%ecx
  404065:	f7 d3                	not    %ebx
  404067:	21 19                	and    %ebx,(%ecx)
  404069:	fe 0f                	decb   (%edi)
  40406b:	89 5d ec             	mov    %ebx,-0x14(%ebp)
  40406e:	75 0b                	jne    0x40407b
  404070:	8b 5d 08             	mov    0x8(%ebp),%ebx
  404073:	8b 4d ec             	mov    -0x14(%ebp),%ecx
  404076:	21 4b 04             	and    %ecx,0x4(%ebx)
  404079:	eb 03                	jmp    0x40407e
  40407b:	8b 5d 08             	mov    0x8(%ebp),%ebx
  40407e:	8b 4a 08             	mov    0x8(%edx),%ecx
  404081:	8b 7a 04             	mov    0x4(%edx),%edi
  404084:	83 7d f8 00          	cmpl   $0x0,-0x8(%ebp)
  404088:	89 79 04             	mov    %edi,0x4(%ecx)
  40408b:	8b 4a 04             	mov    0x4(%edx),%ecx
  40408e:	8b 7a 08             	mov    0x8(%edx),%edi
  404091:	89 79 08             	mov    %edi,0x8(%ecx)
  404094:	0f 84 94 00 00 00    	je     0x40412e
  40409a:	8b 4d f4             	mov    -0xc(%ebp),%ecx
  40409d:	8b 7c f1 04          	mov    0x4(%ecx,%esi,8),%edi
  4040a1:	8d 0c f1             	lea    (%ecx,%esi,8),%ecx
  4040a4:	89 7a 04             	mov    %edi,0x4(%edx)
  4040a7:	89 4a 08             	mov    %ecx,0x8(%edx)
  4040aa:	89 51 04             	mov    %edx,0x4(%ecx)
  4040ad:	8b 4a 04             	mov    0x4(%edx),%ecx
  4040b0:	89 51 08             	mov    %edx,0x8(%ecx)
  4040b3:	8b 4a 04             	mov    0x4(%edx),%ecx
  4040b6:	3b 4a 08             	cmp    0x8(%edx),%ecx
  4040b9:	75 64                	jne    0x40411f
  4040bb:	8a 4c 06 04          	mov    0x4(%esi,%eax,1),%cl
  4040bf:	83 fe 20             	cmp    $0x20,%esi
  4040c2:	88 4d 0b             	mov    %cl,0xb(%ebp)
  4040c5:	7d 29                	jge    0x4040f0
  4040c7:	fe c1                	inc    %cl
  4040c9:	80 7d 0b 00          	cmpb   $0x0,0xb(%ebp)
  4040cd:	88 4c 06 04          	mov    %cl,0x4(%esi,%eax,1)
  4040d1:	75 0b                	jne    0x4040de
  4040d3:	bf 00 00 00 80       	mov    $0x80000000,%edi
  4040d8:	8b ce                	mov    %esi,%ecx
  4040da:	d3 ef                	shr    %cl,%edi
  4040dc:	09 3b                	or     %edi,(%ebx)
  4040de:	bf 00 00 00 80       	mov    $0x80000000,%edi
  4040e3:	8b ce                	mov    %esi,%ecx
  4040e5:	d3 ef                	shr    %cl,%edi
  4040e7:	8b 4d fc             	mov    -0x4(%ebp),%ecx
  4040ea:	09 7c 88 44          	or     %edi,0x44(%eax,%ecx,4)
  4040ee:	eb 2f                	jmp    0x40411f
  4040f0:	fe c1                	inc    %cl
  4040f2:	80 7d 0b 00          	cmpb   $0x0,0xb(%ebp)
  4040f6:	88 4c 06 04          	mov    %cl,0x4(%esi,%eax,1)
  4040fa:	75 0d                	jne    0x404109
  4040fc:	8d 4e e0             	lea    -0x20(%esi),%ecx
  4040ff:	bf 00 00 00 80       	mov    $0x80000000,%edi
  404104:	d3 ef                	shr    %cl,%edi
  404106:	09 7b 04             	or     %edi,0x4(%ebx)
  404109:	8b 4d fc             	mov    -0x4(%ebp),%ecx
  40410c:	8d bc 88 c4 00 00 00 	lea    0xc4(%eax,%ecx,4),%edi
  404113:	8d 4e e0             	lea    -0x20(%esi),%ecx
  404116:	be 00 00 00 80       	mov    $0x80000000,%esi
  40411b:	d3 ee                	shr    %cl,%esi
  40411d:	09 37                	or     %esi,(%edi)
  40411f:	8b 4d f8             	mov    -0x8(%ebp),%ecx
  404122:	85 c9                	test   %ecx,%ecx
  404124:	74 0b                	je     0x404131
  404126:	89 0a                	mov    %ecx,(%edx)
  404128:	89 4c 11 fc          	mov    %ecx,-0x4(%ecx,%edx,1)
  40412c:	eb 03                	jmp    0x404131
  40412e:	8b 4d f8             	mov    -0x8(%ebp),%ecx
  404131:	8b 75 f0             	mov    -0x10(%ebp),%esi
  404134:	03 d1                	add    %ecx,%edx
  404136:	8d 4e 01             	lea    0x1(%esi),%ecx
  404139:	89 0a                	mov    %ecx,(%edx)
  40413b:	89 4c 32 fc          	mov    %ecx,-0x4(%edx,%esi,1)
  40413f:	8b 75 f4             	mov    -0xc(%ebp),%esi
  404142:	8b 0e                	mov    (%esi),%ecx
  404144:	85 c9                	test   %ecx,%ecx
  404146:	8d 79 01             	lea    0x1(%ecx),%edi
  404149:	89 3e                	mov    %edi,(%esi)
  40414b:	75 1a                	jne    0x404167
  40414d:	3b 1d ac 9a 40 00    	cmp    0x409aac,%ebx
  404153:	75 12                	jne    0x404167
  404155:	8b 4d fc             	mov    -0x4(%ebp),%ecx
  404158:	3b 0d a4 9a 40 00    	cmp    0x409aa4,%ecx
  40415e:	75 07                	jne    0x404167
  404160:	83 25 ac 9a 40 00 00 	andl   $0x0,0x409aac
  404167:	8b 4d fc             	mov    -0x4(%ebp),%ecx
  40416a:	89 08                	mov    %ecx,(%eax)
  40416c:	8d 42 04             	lea    0x4(%edx),%eax
  40416f:	5f                   	pop    %edi
  404170:	5e                   	pop    %esi
  404171:	5b                   	pop    %ebx
  404172:	c9                   	leave  
  404173:	c3                   	ret    
  404174:	a1 b0 9a 40 00       	mov    0x409ab0,%eax
  404179:	8b 0d a0 9a 40 00    	mov    0x409aa0,%ecx
  40417f:	56                   	push   %esi
  404180:	57                   	push   %edi
  404181:	33 ff                	xor    %edi,%edi
  404183:	3b c1                	cmp    %ecx,%eax
  404185:	75 30                	jne    0x4041b7
  404187:	8d 44 89 50          	lea    0x50(%ecx,%ecx,4),%eax
  40418b:	c1 e0 02             	shl    $0x2,%eax
  40418e:	50                   	push   %eax
  40418f:	ff 35 b4 9a 40 00    	pushl  0x409ab4
  404195:	57                   	push   %edi
  404196:	ff 35 e8 9c 40 00    	pushl  0x409ce8
  40419c:	ff 15 78 60 40 00    	call   *0x406078
  4041a2:	3b c7                	cmp    %edi,%eax
  4041a4:	74 61                	je     0x404207
  4041a6:	83 05 a0 9a 40 00 10 	addl   $0x10,0x409aa0
  4041ad:	a3 b4 9a 40 00       	mov    %eax,0x409ab4
  4041b2:	a1 b0 9a 40 00       	mov    0x409ab0,%eax
  4041b7:	8b 0d b4 9a 40 00    	mov    0x409ab4,%ecx
  4041bd:	68 c4 41 00 00       	push   $0x41c4
  4041c2:	6a 08                	push   $0x8
  4041c4:	8d 04 80             	lea    (%eax,%eax,4),%eax
  4041c7:	ff 35 e8 9c 40 00    	pushl  0x409ce8
  4041cd:	8d 34 81             	lea    (%ecx,%eax,4),%esi
  4041d0:	ff 15 64 60 40 00    	call   *0x406064
  4041d6:	3b c7                	cmp    %edi,%eax
  4041d8:	89 46 10             	mov    %eax,0x10(%esi)
  4041db:	74 2a                	je     0x404207
  4041dd:	6a 04                	push   $0x4
  4041df:	68 00 20 00 00       	push   $0x2000
  4041e4:	68 00 00 10 00       	push   $0x100000
  4041e9:	57                   	push   %edi
  4041ea:	ff 15 74 60 40 00    	call   *0x406074
  4041f0:	3b c7                	cmp    %edi,%eax
  4041f2:	89 46 0c             	mov    %eax,0xc(%esi)
  4041f5:	75 14                	jne    0x40420b
  4041f7:	ff 76 10             	pushl  0x10(%esi)
  4041fa:	57                   	push   %edi
  4041fb:	ff 35 e8 9c 40 00    	pushl  0x409ce8
  404201:	ff 15 58 60 40 00    	call   *0x406058
  404207:	33 c0                	xor    %eax,%eax
  404209:	eb 17                	jmp    0x404222
  40420b:	83 4e 08 ff          	orl    $0xffffffff,0x8(%esi)
  40420f:	89 3e                	mov    %edi,(%esi)
  404211:	89 7e 04             	mov    %edi,0x4(%esi)
  404214:	ff 05 b0 9a 40 00    	incl   0x409ab0
  40421a:	8b 46 10             	mov    0x10(%esi),%eax
  40421d:	83 08 ff             	orl    $0xffffffff,(%eax)
  404220:	8b c6                	mov    %esi,%eax
  404222:	5f                   	pop    %edi
  404223:	5e                   	pop    %esi
  404224:	c3                   	ret    
  404225:	55                   	push   %ebp
  404226:	8b ec                	mov    %esp,%ebp
  404228:	51                   	push   %ecx
  404229:	8b 4d 08             	mov    0x8(%ebp),%ecx
  40422c:	53                   	push   %ebx
  40422d:	56                   	push   %esi
  40422e:	57                   	push   %edi
  40422f:	8b 71 10             	mov    0x10(%ecx),%esi
  404232:	8b 41 08             	mov    0x8(%ecx),%eax
  404235:	33 db                	xor    %ebx,%ebx
  404237:	85 c0                	test   %eax,%eax
  404239:	7c 05                	jl     0x404240
  40423b:	d1 e0                	shl    %eax
  40423d:	43                   	inc    %ebx
  40423e:	eb f7                	jmp    0x404237
  404240:	8b c3                	mov    %ebx,%eax
  404242:	6a 3f                	push   $0x3f
  404244:	69 c0 04 02 00 00    	imul   $0x204,%eax,%eax
  40424a:	5a                   	pop    %edx
  40424b:	8d 84 30 44 01 00 00 	lea    0x144(%eax,%esi,1),%eax
  404252:	89 45 fc             	mov    %eax,-0x4(%ebp)
  404255:	89 40 08             	mov    %eax,0x8(%eax)
  404258:	89 40 04             	mov    %eax,0x4(%eax)
  40425b:	83 c0 08             	add    $0x8,%eax
  40425e:	4a                   	dec    %edx
  40425f:	75 f4                	jne    0x404255
  404261:	8b fb                	mov    %ebx,%edi
  404263:	6a 04                	push   $0x4
  404265:	c1 e7 0f             	shl    $0xf,%edi
  404268:	03 79 0c             	add    0xc(%ecx),%edi
  40426b:	68 00 10 00 00       	push   $0x1000
  404270:	68 00 80 00 00       	push   $0x8000
  404275:	57                   	push   %edi
  404276:	ff 15 74 60 40 00    	call   *0x406074
  40427c:	85 c0                	test   %eax,%eax
  40427e:	75 08                	jne    0x404288
  404280:	83 c8 ff             	or     $0xffffffff,%eax
  404283:	e9 93 00 00 00       	jmp    0x40431b
  404288:	8d 97 00 70 00 00    	lea    0x7000(%edi),%edx
  40428e:	3b fa                	cmp    %edx,%edi
  404290:	77 3c                	ja     0x4042ce
  404292:	8d 47 10             	lea    0x10(%edi),%eax
  404295:	83 48 f8 ff          	orl    $0xffffffff,-0x8(%eax)
  404299:	83 88 ec 0f 00 00 ff 	orl    $0xffffffff,0xfec(%eax)
  4042a0:	8d 88 fc 0f 00 00    	lea    0xffc(%eax),%ecx
  4042a6:	c7 40 fc f0 0f 00 00 	movl   $0xff0,-0x4(%eax)
  4042ad:	89 08                	mov    %ecx,(%eax)
  4042af:	8d 88 fc ef ff ff    	lea    -0x1004(%eax),%ecx
  4042b5:	89 48 04             	mov    %ecx,0x4(%eax)
  4042b8:	c7 80 e8 0f 00 00 f0 	movl   $0xff0,0xfe8(%eax)
  4042bf:	0f 00 00 
  4042c2:	05 00 10 00 00       	add    $0x1000,%eax
  4042c7:	8d 48 f0             	lea    -0x10(%eax),%ecx
  4042ca:	3b ca                	cmp    %edx,%ecx
  4042cc:	76 c7                	jbe    0x404295
  4042ce:	8b 45 fc             	mov    -0x4(%ebp),%eax
  4042d1:	8d 4f 0c             	lea    0xc(%edi),%ecx
  4042d4:	05 f8 01 00 00       	add    $0x1f8,%eax
  4042d9:	6a 01                	push   $0x1
  4042db:	5f                   	pop    %edi
  4042dc:	89 48 04             	mov    %ecx,0x4(%eax)
  4042df:	89 41 08             	mov    %eax,0x8(%ecx)
  4042e2:	8d 4a 0c             	lea    0xc(%edx),%ecx
  4042e5:	89 48 08             	mov    %ecx,0x8(%eax)
  4042e8:	89 41 04             	mov    %eax,0x4(%ecx)
  4042eb:	83 64 9e 44 00       	andl   $0x0,0x44(%esi,%ebx,4)
  4042f0:	89 bc 9e c4 00 00 00 	mov    %edi,0xc4(%esi,%ebx,4)
  4042f7:	8a 46 43             	mov    0x43(%esi),%al
  4042fa:	8a c8                	mov    %al,%cl
  4042fc:	fe c1                	inc    %cl
  4042fe:	84 c0                	test   %al,%al
  404300:	8b 45 08             	mov    0x8(%ebp),%eax
  404303:	88 4e 43             	mov    %cl,0x43(%esi)
  404306:	75 03                	jne    0x40430b
  404308:	09 78 04             	or     %edi,0x4(%eax)
  40430b:	ba 00 00 00 80       	mov    $0x80000000,%edx
  404310:	8b cb                	mov    %ebx,%ecx
  404312:	d3 ea                	shr    %cl,%edx
  404314:	f7 d2                	not    %edx
  404316:	21 50 08             	and    %edx,0x8(%eax)
  404319:	8b c3                	mov    %ebx,%eax
  40431b:	5f                   	pop    %edi
  40431c:	5e                   	pop    %esi
  40431d:	5b                   	pop    %ebx
  40431e:	c9                   	leave  
  40431f:	c3                   	ret    
  404320:	83 3d 50 77 40 00 ff 	cmpl   $0xffffffff,0x407750
  404327:	53                   	push   %ebx
  404328:	55                   	push   %ebp
  404329:	56                   	push   %esi
  40432a:	57                   	push   %edi
  40432b:	75 07                	jne    0x404334
  40432d:	be 40 77 40 00       	mov    $0x407740,%esi
  404332:	eb 1d                	jmp    0x404351
  404334:	68 20 20 00 00       	push   $0x2020
  404339:	6a 00                	push   $0x0
  40433b:	ff 35 e8 9c 40 00    	pushl  0x409ce8
  404341:	ff 15 64 60 40 00    	call   *0x406064
  404347:	8b f0                	mov    %eax,%esi
  404349:	85 f6                	test   %esi,%esi
  40434b:	0f 84 0c 01 00 00    	je     0x40445d
  404351:	8b 2d 74 60 40 00    	mov    0x406074,%ebp
  404357:	6a 04                	push   $0x4
  404359:	68 00 20 00 00       	push   $0x2000
  40435e:	68 00 00 40 00       	push   $0x400000
  404363:	6a 00                	push   $0x0
  404365:	ff d5                	call   *%ebp
  404367:	8b f8                	mov    %eax,%edi
  404369:	85 ff                	test   %edi,%edi
  40436b:	0f 84 d5 00 00 00    	je     0x404446
  404371:	6a 04                	push   $0x4
  404373:	bb 00 00 01 00       	mov    $0x10000,%ebx
  404378:	68 00 10 00 00       	push   $0x1000
  40437d:	53                   	push   %ebx
  40437e:	57                   	push   %edi
  40437f:	ff d5                	call   *%ebp
  404381:	85 c0                	test   %eax,%eax
  404383:	0f 84 af 00 00 00    	je     0x404438
  404389:	b8 40 77 40 00       	mov    $0x407740,%eax
  40438e:	3b f0                	cmp    %eax,%esi
  404390:	75 1e                	jne    0x4043b0
  404392:	83 3d 40 77 40 00 00 	cmpl   $0x0,0x407740
  404399:	75 05                	jne    0x4043a0
  40439b:	a3 40 77 40 00       	mov    %eax,0x407740
  4043a0:	83 3d 44 77 40 00 00 	cmpl   $0x0,0x407744
  4043a7:	75 1c                	jne    0x4043c5
  4043a9:	a3 44 77 40 00       	mov    %eax,0x407744
  4043ae:	eb 15                	jmp    0x4043c5
  4043b0:	89 06                	mov    %eax,(%esi)
  4043b2:	a1 44 77 40 00       	mov    0x407744,%eax
  4043b7:	89 46 04             	mov    %eax,0x4(%esi)
  4043ba:	89 35 44 77 40 00    	mov    %esi,0x407744
  4043c0:	8b 46 04             	mov    0x4(%esi),%eax
  4043c3:	89 30                	mov    %esi,(%eax)
  4043c5:	8d 87 00 00 40 00    	lea    0x400000(%edi),%eax
  4043cb:	8d 8e 98 00 00 00    	lea    0x98(%esi),%ecx
  4043d1:	89 46 14             	mov    %eax,0x14(%esi)
  4043d4:	8d 46 18             	lea    0x18(%esi),%eax
  4043d7:	89 4e 0c             	mov    %ecx,0xc(%esi)
  4043da:	89 7e 10             	mov    %edi,0x10(%esi)
  4043dd:	89 46 08             	mov    %eax,0x8(%esi)
  4043e0:	33 ed                	xor    %ebp,%ebp
  4043e2:	b9 f1 00 00 00       	mov    $0xf1,%ecx
  4043e7:	33 d2                	xor    %edx,%edx
  4043e9:	83 fd 10             	cmp    $0x10,%ebp
  4043ec:	0f 9d c2             	setge  %dl
  4043ef:	4a                   	dec    %edx
  4043f0:	23 d1                	and    %ecx,%edx
  4043f2:	4a                   	dec    %edx
  4043f3:	45                   	inc    %ebp
  4043f4:	89 10                	mov    %edx,(%eax)
  4043f6:	89 48 04             	mov    %ecx,0x4(%eax)
  4043f9:	83 c0 08             	add    $0x8,%eax
  4043fc:	81 fd 00 04 00 00    	cmp    $0x400,%ebp
  404402:	7c e3                	jl     0x4043e7
  404404:	53                   	push   %ebx
  404405:	6a 00                	push   $0x0
  404407:	57                   	push   %edi
  404408:	e8 d3 09 00 00       	call   0x404de0
  40440d:	83 c4 0c             	add    $0xc,%esp
  404410:	8b 46 10             	mov    0x10(%esi),%eax
  404413:	03 c3                	add    %ebx,%eax
  404415:	3b f8                	cmp    %eax,%edi
  404417:	73 1b                	jae    0x404434
  404419:	80 8f f8 00 00 00 ff 	orb    $0xff,0xf8(%edi)
  404420:	8d 47 08             	lea    0x8(%edi),%eax
  404423:	89 07                	mov    %eax,(%edi)
  404425:	c7 47 04 f0 00 00 00 	movl   $0xf0,0x4(%edi)
  40442c:	81 c7 00 10 00 00    	add    $0x1000,%edi
  404432:	eb dc                	jmp    0x404410
  404434:	8b c6                	mov    %esi,%eax
  404436:	eb 27                	jmp    0x40445f
  404438:	68 00 80 00 00       	push   $0x8000
  40443d:	6a 00                	push   $0x0
  40443f:	57                   	push   %edi
  404440:	ff 15 54 60 40 00    	call   *0x406054
  404446:	81 fe 40 77 40 00    	cmp    $0x407740,%esi
  40444c:	74 0f                	je     0x40445d
  40444e:	56                   	push   %esi
  40444f:	6a 00                	push   $0x0
  404451:	ff 35 e8 9c 40 00    	pushl  0x409ce8
  404457:	ff 15 58 60 40 00    	call   *0x406058
  40445d:	33 c0                	xor    %eax,%eax
  40445f:	5f                   	pop    %edi
  404460:	5e                   	pop    %esi
  404461:	5d                   	pop    %ebp
  404462:	5b                   	pop    %ebx
  404463:	c3                   	ret    
  404464:	56                   	push   %esi
  404465:	8b 74 24 08          	mov    0x8(%esp),%esi
  404469:	68 00 80 00 00       	push   $0x8000
  40446e:	6a 00                	push   $0x0
  404470:	ff 76 10             	pushl  0x10(%esi)
  404473:	ff 15 54 60 40 00    	call   *0x406054
  404479:	39 35 60 97 40 00    	cmp    %esi,0x409760
  40447f:	75 08                	jne    0x404489
  404481:	8b 46 04             	mov    0x4(%esi),%eax
  404484:	a3 60 97 40 00       	mov    %eax,0x409760
  404489:	81 fe 40 77 40 00    	cmp    $0x407740,%esi
  40448f:	74 20                	je     0x4044b1
  404491:	8b 46 04             	mov    0x4(%esi),%eax
  404494:	8b 0e                	mov    (%esi),%ecx
  404496:	56                   	push   %esi
  404497:	6a 00                	push   $0x0
  404499:	89 08                	mov    %ecx,(%eax)
  40449b:	8b 06                	mov    (%esi),%eax
  40449d:	8b 4e 04             	mov    0x4(%esi),%ecx
  4044a0:	89 48 04             	mov    %ecx,0x4(%eax)
  4044a3:	ff 35 e8 9c 40 00    	pushl  0x409ce8
  4044a9:	ff 15 58 60 40 00    	call   *0x406058
  4044af:	5e                   	pop    %esi
  4044b0:	c3                   	ret    
  4044b1:	83 0d 50 77 40 00 ff 	orl    $0xffffffff,0x407750
  4044b8:	5e                   	pop    %esi
  4044b9:	c3                   	ret    
  4044ba:	55                   	push   %ebp
  4044bb:	8b ec                	mov    %esp,%ebp
  4044bd:	51                   	push   %ecx
  4044be:	53                   	push   %ebx
  4044bf:	56                   	push   %esi
  4044c0:	8b 35 44 77 40 00    	mov    0x407744,%esi
  4044c6:	57                   	push   %edi
  4044c7:	83 7e 10 ff          	cmpl   $0xffffffff,0x10(%esi)
  4044cb:	0f 84 94 00 00 00    	je     0x404565
  4044d1:	83 65 fc 00          	andl   $0x0,-0x4(%ebp)
  4044d5:	8d be 10 20 00 00    	lea    0x2010(%esi),%edi
  4044db:	bb 00 f0 3f 00       	mov    $0x3ff000,%ebx
  4044e0:	81 3f f0 00 00 00    	cmpl   $0xf0,(%edi)
  4044e6:	75 39                	jne    0x404521
  4044e8:	8b c3                	mov    %ebx,%eax
  4044ea:	68 00 40 00 00       	push   $0x4000
  4044ef:	03 46 10             	add    0x10(%esi),%eax
  4044f2:	68 00 10 00 00       	push   $0x1000
  4044f7:	50                   	push   %eax
  4044f8:	ff 15 54 60 40 00    	call   *0x406054
  4044fe:	85 c0                	test   %eax,%eax
  404500:	74 1f                	je     0x404521
  404502:	83 0f ff             	orl    $0xffffffff,(%edi)
  404505:	ff 0d 60 9a 40 00    	decl   0x409a60
  40450b:	8b 46 0c             	mov    0xc(%esi),%eax
  40450e:	85 c0                	test   %eax,%eax
  404510:	74 04                	je     0x404516
  404512:	3b c7                	cmp    %edi,%eax
  404514:	76 03                	jbe    0x404519
  404516:	89 7e 0c             	mov    %edi,0xc(%esi)
  404519:	ff 45 fc             	incl   -0x4(%ebp)
  40451c:	ff 4d 08             	decl   0x8(%ebp)
  40451f:	74 0d                	je     0x40452e
  404521:	81 eb 00 10 00 00    	sub    $0x1000,%ebx
  404527:	83 ef 08             	sub    $0x8,%edi
  40452a:	85 db                	test   %ebx,%ebx
  40452c:	7d b2                	jge    0x4044e0
  40452e:	83 7d fc 00          	cmpl   $0x0,-0x4(%ebp)
  404532:	8b ce                	mov    %esi,%ecx
  404534:	8b 76 04             	mov    0x4(%esi),%esi
  404537:	74 2c                	je     0x404565
  404539:	83 79 18 ff          	cmpl   $0xffffffff,0x18(%ecx)
  40453d:	75 26                	jne    0x404565
  40453f:	6a 01                	push   $0x1
  404541:	8d 41 20             	lea    0x20(%ecx),%eax
  404544:	5a                   	pop    %edx
  404545:	83 38 ff             	cmpl   $0xffffffff,(%eax)
  404548:	75 0c                	jne    0x404556
  40454a:	42                   	inc    %edx
  40454b:	83 c0 08             	add    $0x8,%eax
  40454e:	81 fa 00 04 00 00    	cmp    $0x400,%edx
  404554:	7c ef                	jl     0x404545
  404556:	81 fa 00 04 00 00    	cmp    $0x400,%edx
  40455c:	75 07                	jne    0x404565
  40455e:	51                   	push   %ecx
  40455f:	e8 00 ff ff ff       	call   0x404464
  404564:	59                   	pop    %ecx
  404565:	3b 35 44 77 40 00    	cmp    0x407744,%esi
  40456b:	74 0a                	je     0x404577
  40456d:	83 7d 08 00          	cmpl   $0x0,0x8(%ebp)
  404571:	0f 8f 50 ff ff ff    	jg     0x4044c7
  404577:	5f                   	pop    %edi
  404578:	5e                   	pop    %esi
  404579:	5b                   	pop    %ebx
  40457a:	c9                   	leave  
  40457b:	c3                   	ret    
  40457c:	8b 44 24 04          	mov    0x4(%esp),%eax
  404580:	ba 40 77 40 00       	mov    $0x407740,%edx
  404585:	56                   	push   %esi
  404586:	8b ca                	mov    %edx,%ecx
  404588:	3b 41 10             	cmp    0x10(%ecx),%eax
  40458b:	76 05                	jbe    0x404592
  40458d:	3b 41 14             	cmp    0x14(%ecx),%eax
  404590:	72 08                	jb     0x40459a
  404592:	8b 09                	mov    (%ecx),%ecx
  404594:	3b ca                	cmp    %edx,%ecx
  404596:	74 37                	je     0x4045cf
  404598:	eb ee                	jmp    0x404588
  40459a:	a8 0f                	test   $0xf,%al
  40459c:	75 31                	jne    0x4045cf
  40459e:	8b f0                	mov    %eax,%esi
  4045a0:	ba 00 01 00 00       	mov    $0x100,%edx
  4045a5:	81 e6 ff 0f 00 00    	and    $0xfff,%esi
  4045ab:	3b f2                	cmp    %edx,%esi
  4045ad:	72 20                	jb     0x4045cf
  4045af:	8b 74 24 0c          	mov    0xc(%esp),%esi
  4045b3:	89 0e                	mov    %ecx,(%esi)
  4045b5:	8b 74 24 10          	mov    0x10(%esp),%esi
  4045b9:	8b c8                	mov    %eax,%ecx
  4045bb:	66 81 e1 00 f0       	and    $0xf000,%cx
  4045c0:	2b c1                	sub    %ecx,%eax
  4045c2:	89 0e                	mov    %ecx,(%esi)
  4045c4:	2b c2                	sub    %edx,%eax
  4045c6:	5e                   	pop    %esi
  4045c7:	c1 f8 04             	sar    $0x4,%eax
  4045ca:	8d 44 08 08          	lea    0x8(%eax,%ecx,1),%eax
  4045ce:	c3                   	ret    
  4045cf:	33 c0                	xor    %eax,%eax
  4045d1:	5e                   	pop    %esi
  4045d2:	c3                   	ret    
  4045d3:	8b 44 24 04          	mov    0x4(%esp),%eax
  4045d7:	8b 4c 24 08          	mov    0x8(%esp),%ecx
  4045db:	2b 48 10             	sub    0x10(%eax),%ecx
  4045de:	c1 f9 0c             	sar    $0xc,%ecx
  4045e1:	8d 44 c8 18          	lea    0x18(%eax,%ecx,8),%eax
  4045e5:	8b 4c 24 0c          	mov    0xc(%esp),%ecx
  4045e9:	0f b6 11             	movzbl (%ecx),%edx
  4045ec:	01 10                	add    %edx,(%eax)
  4045ee:	80 21 00             	andb   $0x0,(%ecx)
  4045f1:	81 38 f0 00 00 00    	cmpl   $0xf0,(%eax)
  4045f7:	c7 40 04 f1 00 00 00 	movl   $0xf1,0x4(%eax)
  4045fe:	75 17                	jne    0x404617
  404600:	ff 05 60 9a 40 00    	incl   0x409a60
  404606:	83 3d 60 9a 40 00 20 	cmpl   $0x20,0x409a60
  40460d:	75 08                	jne    0x404617
  40460f:	6a 10                	push   $0x10
  404611:	e8 a4 fe ff ff       	call   0x4044ba
  404616:	59                   	pop    %ecx
  404617:	c3                   	ret    
  404618:	55                   	push   %ebp
  404619:	8b ec                	mov    %esp,%ebp
  40461b:	51                   	push   %ecx
  40461c:	51                   	push   %ecx
  40461d:	53                   	push   %ebx
  40461e:	56                   	push   %esi
  40461f:	8b 35 60 97 40 00    	mov    0x409760,%esi
  404625:	57                   	push   %edi
  404626:	8b 56 10             	mov    0x10(%esi),%edx
  404629:	83 fa ff             	cmp    $0xffffffff,%edx
  40462c:	0f 84 9f 00 00 00    	je     0x4046d1
  404632:	8b 7e 08             	mov    0x8(%esi),%edi
  404635:	8d 8e 18 20 00 00    	lea    0x2018(%esi),%ecx
  40463b:	8b c7                	mov    %edi,%eax
  40463d:	2b c6                	sub    %esi,%eax
  40463f:	83 e8 18             	sub    $0x18,%eax
  404642:	c1 f8 03             	sar    $0x3,%eax
  404645:	c1 e0 0c             	shl    $0xc,%eax
  404648:	03 c2                	add    %edx,%eax
  40464a:	3b f9                	cmp    %ecx,%edi
  40464c:	89 45 fc             	mov    %eax,-0x4(%ebp)
  40464f:	73 3a                	jae    0x40468b
  404651:	8b 0f                	mov    (%edi),%ecx
  404653:	8b 5d 08             	mov    0x8(%ebp),%ebx
  404656:	3b cb                	cmp    %ebx,%ecx
  404658:	7c 1a                	jl     0x404674
  40465a:	39 5f 04             	cmp    %ebx,0x4(%edi)
  40465d:	76 15                	jbe    0x404674
  40465f:	53                   	push   %ebx
  404660:	51                   	push   %ecx
  404661:	50                   	push   %eax
  404662:	e8 b9 01 00 00       	call   0x404820
  404667:	83 c4 0c             	add    $0xc,%esp
  40466a:	85 c0                	test   %eax,%eax
  40466c:	75 75                	jne    0x4046e3
  40466e:	8b 45 fc             	mov    -0x4(%ebp),%eax
  404671:	89 5f 04             	mov    %ebx,0x4(%edi)
  404674:	83 c7 08             	add    $0x8,%edi
  404677:	8d 8e 18 20 00 00    	lea    0x2018(%esi),%ecx
  40467d:	05 00 10 00 00       	add    $0x1000,%eax
  404682:	3b f9                	cmp    %ecx,%edi
  404684:	89 45 fc             	mov    %eax,-0x4(%ebp)
  404687:	72 c8                	jb     0x404651
  404689:	eb 03                	jmp    0x40468e
  40468b:	8b 5d 08             	mov    0x8(%ebp),%ebx
  40468e:	8b 46 08             	mov    0x8(%esi),%eax
  404691:	8b 4e 10             	mov    0x10(%esi),%ecx
  404694:	8d 7e 18             	lea    0x18(%esi),%edi
  404697:	89 45 f8             	mov    %eax,-0x8(%ebp)
  40469a:	3b f8                	cmp    %eax,%edi
  40469c:	89 4d fc             	mov    %ecx,-0x4(%ebp)
  40469f:	73 33                	jae    0x4046d4
  4046a1:	8b 07                	mov    (%edi),%eax
  4046a3:	3b c3                	cmp    %ebx,%eax
  4046a5:	7c 19                	jl     0x4046c0
  4046a7:	39 5f 04             	cmp    %ebx,0x4(%edi)
  4046aa:	76 14                	jbe    0x4046c0
  4046ac:	53                   	push   %ebx
  4046ad:	50                   	push   %eax
  4046ae:	ff 75 fc             	pushl  -0x4(%ebp)
  4046b1:	e8 6a 01 00 00       	call   0x404820
  4046b6:	83 c4 0c             	add    $0xc,%esp
  4046b9:	85 c0                	test   %eax,%eax
  4046bb:	75 26                	jne    0x4046e3
  4046bd:	89 5f 04             	mov    %ebx,0x4(%edi)
  4046c0:	81 45 fc 00 10 00 00 	addl   $0x1000,-0x4(%ebp)
  4046c7:	83 c7 08             	add    $0x8,%edi
  4046ca:	3b 7d f8             	cmp    -0x8(%ebp),%edi
  4046cd:	72 d2                	jb     0x4046a1
  4046cf:	eb 03                	jmp    0x4046d4
  4046d1:	8b 5d 08             	mov    0x8(%ebp),%ebx
  4046d4:	8b 36                	mov    (%esi),%esi
  4046d6:	3b 35 60 97 40 00    	cmp    0x409760,%esi
  4046dc:	74 15                	je     0x4046f3
  4046de:	e9 43 ff ff ff       	jmp    0x404626
  4046e3:	89 35 60 97 40 00    	mov    %esi,0x409760
  4046e9:	29 1f                	sub    %ebx,(%edi)
  4046eb:	89 7e 08             	mov    %edi,0x8(%esi)
  4046ee:	e9 28 01 00 00       	jmp    0x40481b
  4046f3:	b8 40 77 40 00       	mov    $0x407740,%eax
  4046f8:	8b f8                	mov    %eax,%edi
  4046fa:	83 7f 10 ff          	cmpl   $0xffffffff,0x10(%edi)
  4046fe:	74 06                	je     0x404706
  404700:	83 7f 0c 00          	cmpl   $0x0,0xc(%edi)
  404704:	75 0c                	jne    0x404712
  404706:	8b 3f                	mov    (%edi),%edi
  404708:	3b f8                	cmp    %eax,%edi
  40470a:	0f 84 d7 00 00 00    	je     0x4047e7
  404710:	eb e8                	jmp    0x4046fa
  404712:	8b 5f 0c             	mov    0xc(%edi),%ebx
  404715:	83 65 fc 00          	andl   $0x0,-0x4(%ebp)
  404719:	8b f3                	mov    %ebx,%esi
  40471b:	8b c3                	mov    %ebx,%eax
  40471d:	2b f7                	sub    %edi,%esi
  40471f:	83 ee 18             	sub    $0x18,%esi
  404722:	c1 fe 03             	sar    $0x3,%esi
  404725:	c1 e6 0c             	shl    $0xc,%esi
  404728:	03 77 10             	add    0x10(%edi),%esi
  40472b:	83 3b ff             	cmpl   $0xffffffff,(%ebx)
  40472e:	75 11                	jne    0x404741
  404730:	83 7d fc 10          	cmpl   $0x10,-0x4(%ebp)
  404734:	7d 0b                	jge    0x404741
  404736:	83 c0 08             	add    $0x8,%eax
  404739:	ff 45 fc             	incl   -0x4(%ebp)
  40473c:	83 38 ff             	cmpl   $0xffffffff,(%eax)
  40473f:	74 ef                	je     0x404730
  404741:	8b 45 fc             	mov    -0x4(%ebp),%eax
  404744:	6a 04                	push   $0x4
  404746:	c1 e0 0c             	shl    $0xc,%eax
  404749:	68 00 10 00 00       	push   $0x1000
  40474e:	50                   	push   %eax
  40474f:	56                   	push   %esi
  404750:	89 45 f8             	mov    %eax,-0x8(%ebp)
  404753:	ff 15 74 60 40 00    	call   *0x406074
  404759:	3b c6                	cmp    %esi,%eax
  40475b:	0f 85 b8 00 00 00    	jne    0x404819
  404761:	6a 00                	push   $0x0
  404763:	ff 75 f8             	pushl  -0x8(%ebp)
  404766:	56                   	push   %esi
  404767:	e8 74 06 00 00       	call   0x404de0
  40476c:	8b 55 fc             	mov    -0x4(%ebp),%edx
  40476f:	83 c4 0c             	add    $0xc,%esp
  404772:	85 d2                	test   %edx,%edx
  404774:	8b cb                	mov    %ebx,%ecx
  404776:	7e 30                	jle    0x4047a8
  404778:	8d 46 04             	lea    0x4(%esi),%eax
  40477b:	89 55 fc             	mov    %edx,-0x4(%ebp)
  40477e:	80 88 f4 00 00 00 ff 	orb    $0xff,0xf4(%eax)
  404785:	8d 50 04             	lea    0x4(%eax),%edx
  404788:	89 50 fc             	mov    %edx,-0x4(%eax)
  40478b:	ba f0 00 00 00       	mov    $0xf0,%edx
  404790:	89 10                	mov    %edx,(%eax)
  404792:	89 11                	mov    %edx,(%ecx)
  404794:	c7 41 04 f1 00 00 00 	movl   $0xf1,0x4(%ecx)
  40479b:	05 00 10 00 00       	add    $0x1000,%eax
  4047a0:	83 c1 08             	add    $0x8,%ecx
  4047a3:	ff 4d fc             	decl   -0x4(%ebp)
  4047a6:	75 d6                	jne    0x40477e
  4047a8:	89 3d 60 97 40 00    	mov    %edi,0x409760
  4047ae:	8d 87 18 20 00 00    	lea    0x2018(%edi),%eax
  4047b4:	3b c8                	cmp    %eax,%ecx
  4047b6:	73 0c                	jae    0x4047c4
  4047b8:	83 39 ff             	cmpl   $0xffffffff,(%ecx)
  4047bb:	74 05                	je     0x4047c2
  4047bd:	83 c1 08             	add    $0x8,%ecx
  4047c0:	eb f2                	jmp    0x4047b4
  4047c2:	3b c8                	cmp    %eax,%ecx
  4047c4:	1b c0                	sbb    %eax,%eax
  4047c6:	23 c1                	and    %ecx,%eax
  4047c8:	89 47 0c             	mov    %eax,0xc(%edi)
  4047cb:	8b 45 08             	mov    0x8(%ebp),%eax
  4047ce:	88 46 08             	mov    %al,0x8(%esi)
  4047d1:	89 5f 08             	mov    %ebx,0x8(%edi)
  4047d4:	29 03                	sub    %eax,(%ebx)
  4047d6:	29 46 04             	sub    %eax,0x4(%esi)
  4047d9:	8d 4c 06 08          	lea    0x8(%esi,%eax,1),%ecx
  4047dd:	8d 86 00 01 00 00    	lea    0x100(%esi),%eax
  4047e3:	89 0e                	mov    %ecx,(%esi)
  4047e5:	eb 34                	jmp    0x40481b
  4047e7:	e8 34 fb ff ff       	call   0x404320
  4047ec:	85 c0                	test   %eax,%eax
  4047ee:	74 29                	je     0x404819
  4047f0:	8b 48 10             	mov    0x10(%eax),%ecx
  4047f3:	88 59 08             	mov    %bl,0x8(%ecx)
  4047f6:	8d 54 19 08          	lea    0x8(%ecx,%ebx,1),%edx
  4047fa:	a3 60 97 40 00       	mov    %eax,0x409760
  4047ff:	89 11                	mov    %edx,(%ecx)
  404801:	ba f0 00 00 00       	mov    $0xf0,%edx
  404806:	2b d3                	sub    %ebx,%edx
  404808:	89 51 04             	mov    %edx,0x4(%ecx)
  40480b:	0f b6 d3             	movzbl %bl,%edx
  40480e:	29 50 18             	sub    %edx,0x18(%eax)
  404811:	8d 81 00 01 00 00    	lea    0x100(%ecx),%eax
  404817:	eb 02                	jmp    0x40481b
  404819:	33 c0                	xor    %eax,%eax
  40481b:	5f                   	pop    %edi
  40481c:	5e                   	pop    %esi
  40481d:	5b                   	pop    %ebx
  40481e:	c9                   	leave  
  40481f:	c3                   	ret    
  404820:	55                   	push   %ebp
  404821:	8b ec                	mov    %esp,%ebp
  404823:	51                   	push   %ecx
  404824:	8b 4d 08             	mov    0x8(%ebp),%ecx
  404827:	8b 55 10             	mov    0x10(%ebp),%edx
  40482a:	53                   	push   %ebx
  40482b:	56                   	push   %esi
  40482c:	8b 71 04             	mov    0x4(%ecx),%esi
  40482f:	57                   	push   %edi
  404830:	8b 39                	mov    (%ecx),%edi
  404832:	8d 99 f8 00 00 00    	lea    0xf8(%ecx),%ebx
  404838:	3b f2                	cmp    %edx,%esi
  40483a:	89 7d fc             	mov    %edi,-0x4(%ebp)
  40483d:	8b c7                	mov    %edi,%eax
  40483f:	89 5d 08             	mov    %ebx,0x8(%ebp)
  404842:	72 21                	jb     0x404865
  404844:	8d 04 17             	lea    (%edi,%edx,1),%eax
  404847:	88 17                	mov    %dl,(%edi)
  404849:	3b c3                	cmp    %ebx,%eax
  40484b:	73 07                	jae    0x404854
  40484d:	01 11                	add    %edx,(%ecx)
  40484f:	29 51 04             	sub    %edx,0x4(%ecx)
  404852:	eb 09                	jmp    0x40485d
  404854:	83 61 04 00          	andl   $0x0,0x4(%ecx)
  404858:	8d 41 08             	lea    0x8(%ecx),%eax
  40485b:	89 01                	mov    %eax,(%ecx)
  40485d:	8d 47 08             	lea    0x8(%edi),%eax
  404860:	e9 ce 00 00 00       	jmp    0x404933
  404865:	03 f7                	add    %edi,%esi
  404867:	80 3e 00             	cmpb   $0x0,(%esi)
  40486a:	74 02                	je     0x40486e
  40486c:	8b c6                	mov    %esi,%eax
  40486e:	8d 34 10             	lea    (%eax,%edx,1),%esi
  404871:	3b f3                	cmp    %ebx,%esi
  404873:	73 43                	jae    0x4048b8
  404875:	8a 18                	mov    (%eax),%bl
  404877:	84 db                	test   %bl,%bl
  404879:	75 30                	jne    0x4048ab
  40487b:	6a 01                	push   $0x1
  40487d:	8d 58 01             	lea    0x1(%eax),%ebx
  404880:	5e                   	pop    %esi
  404881:	80 3b 00             	cmpb   $0x0,(%ebx)
  404884:	75 04                	jne    0x40488a
  404886:	43                   	inc    %ebx
  404887:	46                   	inc    %esi
  404888:	eb f7                	jmp    0x404881
  40488a:	3b f2                	cmp    %edx,%esi
  40488c:	73 4e                	jae    0x4048dc
  40488e:	3b 45 fc             	cmp    -0x4(%ebp),%eax
  404891:	75 05                	jne    0x404898
  404893:	89 71 04             	mov    %esi,0x4(%ecx)
  404896:	eb 0c                	jmp    0x4048a4
  404898:	29 75 0c             	sub    %esi,0xc(%ebp)
  40489b:	39 55 0c             	cmp    %edx,0xc(%ebp)
  40489e:	0f 82 99 00 00 00    	jb     0x40493d
  4048a4:	8b 7d fc             	mov    -0x4(%ebp),%edi
  4048a7:	8b c3                	mov    %ebx,%eax
  4048a9:	eb 05                	jmp    0x4048b0
  4048ab:	0f b6 f3             	movzbl %bl,%esi
  4048ae:	03 c6                	add    %esi,%eax
  4048b0:	8d 34 10             	lea    (%eax,%edx,1),%esi
  4048b3:	3b 75 08             	cmp    0x8(%ebp),%esi
  4048b6:	72 bd                	jb     0x404875
  4048b8:	8d 71 08             	lea    0x8(%ecx),%esi
  4048bb:	3b f7                	cmp    %edi,%esi
  4048bd:	73 7e                	jae    0x40493d
  4048bf:	8d 04 16             	lea    (%esi,%edx,1),%eax
  4048c2:	3b 45 08             	cmp    0x8(%ebp),%eax
  4048c5:	73 76                	jae    0x40493d
  4048c7:	8a 06                	mov    (%esi),%al
  4048c9:	84 c0                	test   %al,%al
  4048cb:	75 40                	jne    0x40490d
  4048cd:	6a 01                	push   $0x1
  4048cf:	8d 5e 01             	lea    0x1(%esi),%ebx
  4048d2:	58                   	pop    %eax
  4048d3:	80 3b 00             	cmpb   $0x0,(%ebx)
  4048d6:	75 25                	jne    0x4048fd
  4048d8:	43                   	inc    %ebx
  4048d9:	40                   	inc    %eax
  4048da:	eb f7                	jmp    0x4048d3
  4048dc:	8d 1c 10             	lea    (%eax,%edx,1),%ebx
  4048df:	3b 5d 08             	cmp    0x8(%ebp),%ebx
  4048e2:	73 09                	jae    0x4048ed
  4048e4:	2b f2                	sub    %edx,%esi
  4048e6:	89 19                	mov    %ebx,(%ecx)
  4048e8:	89 71 04             	mov    %esi,0x4(%ecx)
  4048eb:	eb 09                	jmp    0x4048f6
  4048ed:	83 61 04 00          	andl   $0x0,0x4(%ecx)
  4048f1:	8d 71 08             	lea    0x8(%ecx),%esi
  4048f4:	89 31                	mov    %esi,(%ecx)
  4048f6:	88 10                	mov    %dl,(%eax)
  4048f8:	83 c0 08             	add    $0x8,%eax
  4048fb:	eb 36                	jmp    0x404933
  4048fd:	3b c2                	cmp    %edx,%eax
  4048ff:	73 13                	jae    0x404914
  404901:	29 45 0c             	sub    %eax,0xc(%ebp)
  404904:	39 55 0c             	cmp    %edx,0xc(%ebp)
  404907:	72 34                	jb     0x40493d
  404909:	8b f3                	mov    %ebx,%esi
  40490b:	eb ae                	jmp    0x4048bb
  40490d:	0f b6 c0             	movzbl %al,%eax
  404910:	03 f0                	add    %eax,%esi
  404912:	eb a7                	jmp    0x4048bb
  404914:	8d 1c 16             	lea    (%esi,%edx,1),%ebx
  404917:	3b 5d 08             	cmp    0x8(%ebp),%ebx
  40491a:	73 09                	jae    0x404925
  40491c:	2b c2                	sub    %edx,%eax
  40491e:	89 19                	mov    %ebx,(%ecx)
  404920:	89 41 04             	mov    %eax,0x4(%ecx)
  404923:	eb 09                	jmp    0x40492e
  404925:	83 61 04 00          	andl   $0x0,0x4(%ecx)
  404929:	8d 41 08             	lea    0x8(%ecx),%eax
  40492c:	89 01                	mov    %eax,(%ecx)
  40492e:	88 16                	mov    %dl,(%esi)
  404930:	8d 46 08             	lea    0x8(%esi),%eax
  404933:	6b c9 0f             	imul   $0xf,%ecx,%ecx
  404936:	c1 e0 04             	shl    $0x4,%eax
  404939:	2b c1                	sub    %ecx,%eax
  40493b:	eb 02                	jmp    0x40493f
  40493d:	33 c0                	xor    %eax,%eax
  40493f:	5f                   	pop    %edi
  404940:	5e                   	pop    %esi
  404941:	5b                   	pop    %ebx
  404942:	c9                   	leave  
  404943:	c3                   	ret    
  404944:	53                   	push   %ebx
  404945:	33 db                	xor    %ebx,%ebx
  404947:	39 1d 64 9a 40 00    	cmp    %ebx,0x409a64
  40494d:	56                   	push   %esi
  40494e:	57                   	push   %edi
  40494f:	75 42                	jne    0x404993
  404951:	68 80 64 40 00       	push   $0x406480
  404956:	ff 15 80 60 40 00    	call   *0x406080
  40495c:	8b f8                	mov    %eax,%edi
  40495e:	3b fb                	cmp    %ebx,%edi
  404960:	74 67                	je     0x4049c9
  404962:	8b 35 7c 60 40 00    	mov    0x40607c,%esi
  404968:	68 74 64 40 00       	push   $0x406474
  40496d:	57                   	push   %edi
  40496e:	ff d6                	call   *%esi
  404970:	85 c0                	test   %eax,%eax
  404972:	a3 64 9a 40 00       	mov    %eax,0x409a64
  404977:	74 50                	je     0x4049c9
  404979:	68 64 64 40 00       	push   $0x406464
  40497e:	57                   	push   %edi
  40497f:	ff d6                	call   *%esi
  404981:	68 50 64 40 00       	push   $0x406450
  404986:	57                   	push   %edi
  404987:	a3 68 9a 40 00       	mov    %eax,0x409a68
  40498c:	ff d6                	call   *%esi
  40498e:	a3 6c 9a 40 00       	mov    %eax,0x409a6c
  404993:	a1 68 9a 40 00       	mov    0x409a68,%eax
  404998:	85 c0                	test   %eax,%eax
  40499a:	74 16                	je     0x4049b2
  40499c:	ff d0                	call   *%eax
  40499e:	8b d8                	mov    %eax,%ebx
  4049a0:	85 db                	test   %ebx,%ebx
  4049a2:	74 0e                	je     0x4049b2
  4049a4:	a1 6c 9a 40 00       	mov    0x409a6c,%eax
  4049a9:	85 c0                	test   %eax,%eax
  4049ab:	74 05                	je     0x4049b2
  4049ad:	53                   	push   %ebx
  4049ae:	ff d0                	call   *%eax
  4049b0:	8b d8                	mov    %eax,%ebx
  4049b2:	ff 74 24 18          	pushl  0x18(%esp)
  4049b6:	ff 74 24 18          	pushl  0x18(%esp)
  4049ba:	ff 74 24 18          	pushl  0x18(%esp)
  4049be:	53                   	push   %ebx
  4049bf:	ff 15 64 9a 40 00    	call   *0x409a64
  4049c5:	5f                   	pop    %edi
  4049c6:	5e                   	pop    %esi
  4049c7:	5b                   	pop    %ebx
  4049c8:	c3                   	ret    
  4049c9:	33 c0                	xor    %eax,%eax
  4049cb:	eb f8                	jmp    0x4049c5
  4049cd:	cc                   	int3   
  4049ce:	cc                   	int3   
  4049cf:	cc                   	int3   
  4049d0:	8b 4c 24 0c          	mov    0xc(%esp),%ecx
  4049d4:	57                   	push   %edi
  4049d5:	85 c9                	test   %ecx,%ecx
  4049d7:	74 7a                	je     0x404a53
  4049d9:	56                   	push   %esi
  4049da:	53                   	push   %ebx
  4049db:	8b d9                	mov    %ecx,%ebx
  4049dd:	8b 74 24 14          	mov    0x14(%esp),%esi
  4049e1:	f7 c6 03 00 00 00    	test   $0x3,%esi
  4049e7:	8b 7c 24 10          	mov    0x10(%esp),%edi
  4049eb:	75 07                	jne    0x4049f4
  4049ed:	c1 e9 02             	shr    $0x2,%ecx
  4049f0:	75 6f                	jne    0x404a61
  4049f2:	eb 21                	jmp    0x404a15
  4049f4:	8a 06                	mov    (%esi),%al
  4049f6:	46                   	inc    %esi
  4049f7:	88 07                	mov    %al,(%edi)
  4049f9:	47                   	inc    %edi
  4049fa:	49                   	dec    %ecx
  4049fb:	74 25                	je     0x404a22
  4049fd:	84 c0                	test   %al,%al
  4049ff:	74 29                	je     0x404a2a
  404a01:	f7 c6 03 00 00 00    	test   $0x3,%esi
  404a07:	75 eb                	jne    0x4049f4
  404a09:	8b d9                	mov    %ecx,%ebx
  404a0b:	c1 e9 02             	shr    $0x2,%ecx
  404a0e:	75 51                	jne    0x404a61
  404a10:	83 e3 03             	and    $0x3,%ebx
  404a13:	74 0d                	je     0x404a22
  404a15:	8a 06                	mov    (%esi),%al
  404a17:	46                   	inc    %esi
  404a18:	88 07                	mov    %al,(%edi)
  404a1a:	47                   	inc    %edi
  404a1b:	84 c0                	test   %al,%al
  404a1d:	74 2f                	je     0x404a4e
  404a1f:	4b                   	dec    %ebx
  404a20:	75 f3                	jne    0x404a15
  404a22:	8b 44 24 10          	mov    0x10(%esp),%eax
  404a26:	5b                   	pop    %ebx
  404a27:	5e                   	pop    %esi
  404a28:	5f                   	pop    %edi
  404a29:	c3                   	ret    
  404a2a:	f7 c7 03 00 00 00    	test   $0x3,%edi
  404a30:	74 12                	je     0x404a44
  404a32:	88 07                	mov    %al,(%edi)
  404a34:	47                   	inc    %edi
  404a35:	49                   	dec    %ecx
  404a36:	0f 84 8a 00 00 00    	je     0x404ac6
  404a3c:	f7 c7 03 00 00 00    	test   $0x3,%edi
  404a42:	75 ee                	jne    0x404a32
  404a44:	8b d9                	mov    %ecx,%ebx
  404a46:	c1 e9 02             	shr    $0x2,%ecx
  404a49:	75 6c                	jne    0x404ab7
  404a4b:	88 07                	mov    %al,(%edi)
  404a4d:	47                   	inc    %edi
  404a4e:	4b                   	dec    %ebx
  404a4f:	75 fa                	jne    0x404a4b
  404a51:	5b                   	pop    %ebx
  404a52:	5e                   	pop    %esi
  404a53:	8b 44 24 08          	mov    0x8(%esp),%eax
  404a57:	5f                   	pop    %edi
  404a58:	c3                   	ret    
  404a59:	89 17                	mov    %edx,(%edi)
  404a5b:	83 c7 04             	add    $0x4,%edi
  404a5e:	49                   	dec    %ecx
  404a5f:	74 af                	je     0x404a10
  404a61:	ba ff fe fe 7e       	mov    $0x7efefeff,%edx
  404a66:	8b 06                	mov    (%esi),%eax
  404a68:	03 d0                	add    %eax,%edx
  404a6a:	83 f0 ff             	xor    $0xffffffff,%eax
  404a6d:	33 c2                	xor    %edx,%eax
  404a6f:	8b 16                	mov    (%esi),%edx
  404a71:	83 c6 04             	add    $0x4,%esi
  404a74:	a9 00 01 01 81       	test   $0x81010100,%eax
  404a79:	74 de                	je     0x404a59
  404a7b:	84 d2                	test   %dl,%dl
  404a7d:	74 2c                	je     0x404aab
  404a7f:	84 f6                	test   %dh,%dh
  404a81:	74 1e                	je     0x404aa1
  404a83:	f7 c2 00 00 ff 00    	test   $0xff0000,%edx
  404a89:	74 0c                	je     0x404a97
  404a8b:	f7 c2 00 00 00 ff    	test   $0xff000000,%edx
  404a91:	75 c6                	jne    0x404a59
  404a93:	89 17                	mov    %edx,(%edi)
  404a95:	eb 18                	jmp    0x404aaf
  404a97:	81 e2 ff ff 00 00    	and    $0xffff,%edx
  404a9d:	89 17                	mov    %edx,(%edi)
  404a9f:	eb 0e                	jmp    0x404aaf
  404aa1:	81 e2 ff 00 00 00    	and    $0xff,%edx
  404aa7:	89 17                	mov    %edx,(%edi)
  404aa9:	eb 04                	jmp    0x404aaf
  404aab:	33 d2                	xor    %edx,%edx
  404aad:	89 17                	mov    %edx,(%edi)
  404aaf:	83 c7 04             	add    $0x4,%edi
  404ab2:	33 c0                	xor    %eax,%eax
  404ab4:	49                   	dec    %ecx
  404ab5:	74 0a                	je     0x404ac1
  404ab7:	33 c0                	xor    %eax,%eax
  404ab9:	89 07                	mov    %eax,(%edi)
  404abb:	83 c7 04             	add    $0x4,%edi
  404abe:	49                   	dec    %ecx
  404abf:	75 f8                	jne    0x404ab9
  404ac1:	83 e3 03             	and    $0x3,%ebx
  404ac4:	75 85                	jne    0x404a4b
  404ac6:	8b 44 24 10          	mov    0x10(%esp),%eax
  404aca:	5b                   	pop    %ebx
  404acb:	5e                   	pop    %esi
  404acc:	5f                   	pop    %edi
  404acd:	c3                   	ret    
  404ace:	a1 74 9a 40 00       	mov    0x409a74,%eax
  404ad3:	85 c0                	test   %eax,%eax
  404ad5:	74 0f                	je     0x404ae6
  404ad7:	ff 74 24 04          	pushl  0x4(%esp)
  404adb:	ff d0                	call   *%eax
  404add:	85 c0                	test   %eax,%eax
  404adf:	59                   	pop    %ecx
  404ae0:	74 04                	je     0x404ae6
  404ae2:	6a 01                	push   $0x1
  404ae4:	58                   	pop    %eax
  404ae5:	c3                   	ret    
  404ae6:	33 c0                	xor    %eax,%eax
  404ae8:	c3                   	ret    
  404ae9:	8b 44 24 04          	mov    0x4(%esp),%eax
  404aed:	3b 05 00 9e 40 00    	cmp    0x409e00,%eax
  404af3:	73 3d                	jae    0x404b32
  404af5:	8b c8                	mov    %eax,%ecx
  404af7:	8b d0                	mov    %eax,%edx
  404af9:	c1 f9 05             	sar    $0x5,%ecx
  404afc:	83 e2 1f             	and    $0x1f,%edx
  404aff:	8b 0c 8d 00 9d 40 00 	mov    0x409d00(,%ecx,4),%ecx
  404b06:	f6 44 d1 04 01       	testb  $0x1,0x4(%ecx,%edx,8)
  404b0b:	74 25                	je     0x404b32
  404b0d:	50                   	push   %eax
  404b0e:	e8 0c 0c 00 00       	call   0x40571f
  404b13:	59                   	pop    %ecx
  404b14:	50                   	push   %eax
  404b15:	ff 15 88 60 40 00    	call   *0x406088
  404b1b:	85 c0                	test   %eax,%eax
  404b1d:	75 08                	jne    0x404b27
  404b1f:	ff 15 84 60 40 00    	call   *0x406084
  404b25:	eb 02                	jmp    0x404b29
  404b27:	33 c0                	xor    %eax,%eax
  404b29:	85 c0                	test   %eax,%eax
  404b2b:	74 12                	je     0x404b3f
  404b2d:	a3 04 99 40 00       	mov    %eax,0x409904
  404b32:	c7 05 00 99 40 00 09 	movl   $0x9,0x409900
  404b39:	00 00 00 
  404b3c:	83 c8 ff             	or     $0xffffffff,%eax
  404b3f:	c3                   	ret    
  404b40:	55                   	push   %ebp
  404b41:	8b ec                	mov    %esp,%ebp
  404b43:	81 ec 14 04 00 00    	sub    $0x414,%esp
  404b49:	8b 4d 08             	mov    0x8(%ebp),%ecx
  404b4c:	53                   	push   %ebx
  404b4d:	3b 0d 00 9e 40 00    	cmp    0x409e00,%ecx
  404b53:	56                   	push   %esi
  404b54:	57                   	push   %edi
  404b55:	0f 83 79 01 00 00    	jae    0x404cd4
  404b5b:	8b c1                	mov    %ecx,%eax
  404b5d:	8b f1                	mov    %ecx,%esi
  404b5f:	c1 f8 05             	sar    $0x5,%eax
  404b62:	83 e6 1f             	and    $0x1f,%esi
  404b65:	8d 1c 85 00 9d 40 00 	lea    0x409d00(,%eax,4),%ebx
  404b6c:	c1 e6 03             	shl    $0x3,%esi
  404b6f:	8b 03                	mov    (%ebx),%eax
  404b71:	8a 44 30 04          	mov    0x4(%eax,%esi,1),%al
  404b75:	a8 01                	test   $0x1,%al
  404b77:	0f 84 57 01 00 00    	je     0x404cd4
  404b7d:	33 ff                	xor    %edi,%edi
  404b7f:	39 7d 10             	cmp    %edi,0x10(%ebp)
  404b82:	89 7d f8             	mov    %edi,-0x8(%ebp)
  404b85:	89 7d f0             	mov    %edi,-0x10(%ebp)
  404b88:	75 07                	jne    0x404b91
  404b8a:	33 c0                	xor    %eax,%eax
  404b8c:	e9 57 01 00 00       	jmp    0x404ce8
  404b91:	a8 20                	test   $0x20,%al
  404b93:	74 0c                	je     0x404ba1
  404b95:	6a 02                	push   $0x2
  404b97:	57                   	push   %edi
  404b98:	51                   	push   %ecx
  404b99:	e8 58 01 00 00       	call   0x404cf6
  404b9e:	83 c4 0c             	add    $0xc,%esp
  404ba1:	8b 03                	mov    (%ebx),%eax
  404ba3:	03 c6                	add    %esi,%eax
  404ba5:	f6 40 04 80          	testb  $0x80,0x4(%eax)
  404ba9:	0f 84 c1 00 00 00    	je     0x404c70
  404baf:	8b 45 0c             	mov    0xc(%ebp),%eax
  404bb2:	39 7d 10             	cmp    %edi,0x10(%ebp)
  404bb5:	89 45 fc             	mov    %eax,-0x4(%ebp)
  404bb8:	89 7d 08             	mov    %edi,0x8(%ebp)
  404bbb:	0f 86 e7 00 00 00    	jbe    0x404ca8
  404bc1:	8d 85 ec fb ff ff    	lea    -0x414(%ebp),%eax
  404bc7:	8b 4d fc             	mov    -0x4(%ebp),%ecx
  404bca:	2b 4d 0c             	sub    0xc(%ebp),%ecx
  404bcd:	3b 4d 10             	cmp    0x10(%ebp),%ecx
  404bd0:	73 29                	jae    0x404bfb
  404bd2:	8b 4d fc             	mov    -0x4(%ebp),%ecx
  404bd5:	ff 45 fc             	incl   -0x4(%ebp)
  404bd8:	8a 09                	mov    (%ecx),%cl
  404bda:	80 f9 0a             	cmp    $0xa,%cl
  404bdd:	75 07                	jne    0x404be6
  404bdf:	ff 45 f0             	incl   -0x10(%ebp)
  404be2:	c6 00 0d             	movb   $0xd,(%eax)
  404be5:	40                   	inc    %eax
  404be6:	88 08                	mov    %cl,(%eax)
  404be8:	40                   	inc    %eax
  404be9:	8b c8                	mov    %eax,%ecx
  404beb:	8d 95 ec fb ff ff    	lea    -0x414(%ebp),%edx
  404bf1:	2b ca                	sub    %edx,%ecx
  404bf3:	81 f9 00 04 00 00    	cmp    $0x400,%ecx
  404bf9:	7c cc                	jl     0x404bc7
  404bfb:	8b f8                	mov    %eax,%edi
  404bfd:	8d 85 ec fb ff ff    	lea    -0x414(%ebp),%eax
  404c03:	2b f8                	sub    %eax,%edi
  404c05:	8d 45 f4             	lea    -0xc(%ebp),%eax
  404c08:	6a 00                	push   $0x0
  404c0a:	50                   	push   %eax
  404c0b:	8d 85 ec fb ff ff    	lea    -0x414(%ebp),%eax
  404c11:	57                   	push   %edi
  404c12:	50                   	push   %eax
  404c13:	8b 03                	mov    (%ebx),%eax
  404c15:	ff 34 30             	pushl  (%eax,%esi,1)
  404c18:	ff 15 60 60 40 00    	call   *0x406060
  404c1e:	85 c0                	test   %eax,%eax
  404c20:	74 43                	je     0x404c65
  404c22:	8b 45 f4             	mov    -0xc(%ebp),%eax
  404c25:	01 45 f8             	add    %eax,-0x8(%ebp)
  404c28:	3b c7                	cmp    %edi,%eax
  404c2a:	7c 0b                	jl     0x404c37
  404c2c:	8b 45 fc             	mov    -0x4(%ebp),%eax
  404c2f:	2b 45 0c             	sub    0xc(%ebp),%eax
  404c32:	3b 45 10             	cmp    0x10(%ebp),%eax
  404c35:	72 8a                	jb     0x404bc1
  404c37:	33 ff                	xor    %edi,%edi
  404c39:	8b 45 f8             	mov    -0x8(%ebp),%eax
  404c3c:	3b c7                	cmp    %edi,%eax
  404c3e:	0f 85 8b 00 00 00    	jne    0x404ccf
  404c44:	39 7d 08             	cmp    %edi,0x8(%ebp)
  404c47:	74 5f                	je     0x404ca8
  404c49:	6a 05                	push   $0x5
  404c4b:	58                   	pop    %eax
  404c4c:	39 45 08             	cmp    %eax,0x8(%ebp)
  404c4f:	75 4c                	jne    0x404c9d
  404c51:	c7 05 00 99 40 00 09 	movl   $0x9,0x409900
  404c58:	00 00 00 
  404c5b:	a3 04 99 40 00       	mov    %eax,0x409904
  404c60:	e9 80 00 00 00       	jmp    0x404ce5
  404c65:	ff 15 84 60 40 00    	call   *0x406084
  404c6b:	89 45 08             	mov    %eax,0x8(%ebp)
  404c6e:	eb c7                	jmp    0x404c37
  404c70:	8d 4d f4             	lea    -0xc(%ebp),%ecx
  404c73:	57                   	push   %edi
  404c74:	51                   	push   %ecx
  404c75:	ff 75 10             	pushl  0x10(%ebp)
  404c78:	ff 75 0c             	pushl  0xc(%ebp)
  404c7b:	ff 30                	pushl  (%eax)
  404c7d:	ff 15 60 60 40 00    	call   *0x406060
  404c83:	85 c0                	test   %eax,%eax
  404c85:	74 0b                	je     0x404c92
  404c87:	8b 45 f4             	mov    -0xc(%ebp),%eax
  404c8a:	89 7d 08             	mov    %edi,0x8(%ebp)
  404c8d:	89 45 f8             	mov    %eax,-0x8(%ebp)
  404c90:	eb a7                	jmp    0x404c39
  404c92:	ff 15 84 60 40 00    	call   *0x406084
  404c98:	89 45 08             	mov    %eax,0x8(%ebp)
  404c9b:	eb 9c                	jmp    0x404c39
  404c9d:	ff 75 08             	pushl  0x8(%ebp)
  404ca0:	e8 b7 0a 00 00       	call   0x40575c
  404ca5:	59                   	pop    %ecx
  404ca6:	eb 3d                	jmp    0x404ce5
  404ca8:	8b 03                	mov    (%ebx),%eax
  404caa:	f6 44 30 04 40       	testb  $0x40,0x4(%eax,%esi,1)
  404caf:	74 0c                	je     0x404cbd
  404cb1:	8b 45 0c             	mov    0xc(%ebp),%eax
  404cb4:	80 38 1a             	cmpb   $0x1a,(%eax)
  404cb7:	0f 84 cd fe ff ff    	je     0x404b8a
  404cbd:	c7 05 00 99 40 00 1c 	movl   $0x1c,0x409900
  404cc4:	00 00 00 
  404cc7:	89 3d 04 99 40 00    	mov    %edi,0x409904
  404ccd:	eb 16                	jmp    0x404ce5
  404ccf:	2b 45 f0             	sub    -0x10(%ebp),%eax
  404cd2:	eb 14                	jmp    0x404ce8
  404cd4:	83 25 04 99 40 00 00 	andl   $0x0,0x409904
  404cdb:	c7 05 00 99 40 00 09 	movl   $0x9,0x409900
  404ce2:	00 00 00 
  404ce5:	83 c8 ff             	or     $0xffffffff,%eax
  404ce8:	5f                   	pop    %edi
  404ce9:	5e                   	pop    %esi
  404cea:	5b                   	pop    %ebx
  404ceb:	c9                   	leave  
  404cec:	c3                   	ret    
  404ced:	6a 02                	push   $0x2
  404cef:	e8 30 c4 ff ff       	call   0x401124
  404cf4:	59                   	pop    %ecx
  404cf5:	c3                   	ret    
  404cf6:	8b 44 24 04          	mov    0x4(%esp),%eax
  404cfa:	53                   	push   %ebx
  404cfb:	3b 05 00 9e 40 00    	cmp    0x409e00,%eax
  404d01:	56                   	push   %esi
  404d02:	57                   	push   %edi
  404d03:	73 73                	jae    0x404d78
  404d05:	8b c8                	mov    %eax,%ecx
  404d07:	8b f0                	mov    %eax,%esi
  404d09:	c1 f9 05             	sar    $0x5,%ecx
  404d0c:	83 e6 1f             	and    $0x1f,%esi
  404d0f:	8d 3c 8d 00 9d 40 00 	lea    0x409d00(,%ecx,4),%edi
  404d16:	c1 e6 03             	shl    $0x3,%esi
  404d19:	8b 0f                	mov    (%edi),%ecx
  404d1b:	f6 44 31 04 01       	testb  $0x1,0x4(%ecx,%esi,1)
  404d20:	74 56                	je     0x404d78
  404d22:	50                   	push   %eax
  404d23:	e8 f7 09 00 00       	call   0x40571f
  404d28:	83 f8 ff             	cmp    $0xffffffff,%eax
  404d2b:	59                   	pop    %ecx
  404d2c:	75 0c                	jne    0x404d3a
  404d2e:	c7 05 00 99 40 00 09 	movl   $0x9,0x409900
  404d35:	00 00 00 
  404d38:	eb 4f                	jmp    0x404d89
  404d3a:	ff 74 24 18          	pushl  0x18(%esp)
  404d3e:	6a 00                	push   $0x0
  404d40:	ff 74 24 1c          	pushl  0x1c(%esp)
  404d44:	50                   	push   %eax
  404d45:	ff 15 8c 60 40 00    	call   *0x40608c
  404d4b:	8b d8                	mov    %eax,%ebx
  404d4d:	83 fb ff             	cmp    $0xffffffff,%ebx
  404d50:	75 08                	jne    0x404d5a
  404d52:	ff 15 84 60 40 00    	call   *0x406084
  404d58:	eb 02                	jmp    0x404d5c
  404d5a:	33 c0                	xor    %eax,%eax
  404d5c:	85 c0                	test   %eax,%eax
  404d5e:	74 09                	je     0x404d69
  404d60:	50                   	push   %eax
  404d61:	e8 f6 09 00 00       	call   0x40575c
  404d66:	59                   	pop    %ecx
  404d67:	eb 20                	jmp    0x404d89
  404d69:	8b 07                	mov    (%edi),%eax
  404d6b:	80 64 30 04 fd       	andb   $0xfd,0x4(%eax,%esi,1)
  404d70:	8d 44 30 04          	lea    0x4(%eax,%esi,1),%eax
  404d74:	8b c3                	mov    %ebx,%eax
  404d76:	eb 14                	jmp    0x404d8c
  404d78:	83 25 04 99 40 00 00 	andl   $0x0,0x409904
  404d7f:	c7 05 00 99 40 00 09 	movl   $0x9,0x409900
  404d86:	00 00 00 
  404d89:	83 c8 ff             	or     $0xffffffff,%eax
  404d8c:	5f                   	pop    %edi
  404d8d:	5e                   	pop    %esi
  404d8e:	5b                   	pop    %ebx
  404d8f:	c3                   	ret    
  404d90:	ff 05 fc 98 40 00    	incl   0x4098fc
  404d96:	68 00 10 00 00       	push   $0x1000
  404d9b:	e8 f4 da ff ff       	call   0x402894
  404da0:	59                   	pop    %ecx
  404da1:	8b 4c 24 04          	mov    0x4(%esp),%ecx
  404da5:	85 c0                	test   %eax,%eax
  404da7:	89 41 08             	mov    %eax,0x8(%ecx)
  404daa:	74 0d                	je     0x404db9
  404dac:	83 49 0c 08          	orl    $0x8,0xc(%ecx)
  404db0:	c7 41 18 00 10 00 00 	movl   $0x1000,0x18(%ecx)
  404db7:	eb 11                	jmp    0x404dca
  404db9:	83 49 0c 04          	orl    $0x4,0xc(%ecx)
  404dbd:	8d 41 14             	lea    0x14(%ecx),%eax
  404dc0:	89 41 08             	mov    %eax,0x8(%ecx)
  404dc3:	c7 41 18 02 00 00 00 	movl   $0x2,0x18(%ecx)
  404dca:	8b 41 08             	mov    0x8(%ecx),%eax
  404dcd:	83 61 04 00          	andl   $0x0,0x4(%ecx)
  404dd1:	89 01                	mov    %eax,(%ecx)
  404dd3:	c3                   	ret    
  404dd4:	cc                   	int3   
  404dd5:	cc                   	int3   
  404dd6:	cc                   	int3   
  404dd7:	cc                   	int3   
  404dd8:	cc                   	int3   
  404dd9:	cc                   	int3   
  404dda:	cc                   	int3   
  404ddb:	cc                   	int3   
  404ddc:	cc                   	int3   
  404ddd:	cc                   	int3   
  404dde:	cc                   	int3   
  404ddf:	cc                   	int3   
  404de0:	8b 54 24 0c          	mov    0xc(%esp),%edx
  404de4:	8b 4c 24 04          	mov    0x4(%esp),%ecx
  404de8:	85 d2                	test   %edx,%edx
  404dea:	74 47                	je     0x404e33
  404dec:	33 c0                	xor    %eax,%eax
  404dee:	8a 44 24 08          	mov    0x8(%esp),%al
  404df2:	57                   	push   %edi
  404df3:	8b f9                	mov    %ecx,%edi
  404df5:	83 fa 04             	cmp    $0x4,%edx
  404df8:	72 2d                	jb     0x404e27
  404dfa:	f7 d9                	neg    %ecx
  404dfc:	83 e1 03             	and    $0x3,%ecx
  404dff:	74 08                	je     0x404e09
  404e01:	2b d1                	sub    %ecx,%edx
  404e03:	88 07                	mov    %al,(%edi)
  404e05:	47                   	inc    %edi
  404e06:	49                   	dec    %ecx
  404e07:	75 fa                	jne    0x404e03
  404e09:	8b c8                	mov    %eax,%ecx
  404e0b:	c1 e0 08             	shl    $0x8,%eax
  404e0e:	03 c1                	add    %ecx,%eax
  404e10:	8b c8                	mov    %eax,%ecx
  404e12:	c1 e0 10             	shl    $0x10,%eax
  404e15:	03 c1                	add    %ecx,%eax
  404e17:	8b ca                	mov    %edx,%ecx
  404e19:	83 e2 03             	and    $0x3,%edx
  404e1c:	c1 e9 02             	shr    $0x2,%ecx
  404e1f:	74 06                	je     0x404e27
  404e21:	f3 ab                	rep stos %eax,%es:(%edi)
  404e23:	85 d2                	test   %edx,%edx
  404e25:	74 06                	je     0x404e2d
  404e27:	88 07                	mov    %al,(%edi)
  404e29:	47                   	inc    %edi
  404e2a:	4a                   	dec    %edx
  404e2b:	75 fa                	jne    0x404e27
  404e2d:	8b 44 24 08          	mov    0x8(%esp),%eax
  404e31:	5f                   	pop    %edi
  404e32:	c3                   	ret    
  404e33:	8b 44 24 04          	mov    0x4(%esp),%eax
  404e37:	c3                   	ret    
  404e38:	56                   	push   %esi
  404e39:	8b 74 24 08          	mov    0x8(%esp),%esi
  404e3d:	57                   	push   %edi
  404e3e:	83 cf ff             	or     $0xffffffff,%edi
  404e41:	8b 46 0c             	mov    0xc(%esi),%eax
  404e44:	a8 40                	test   $0x40,%al
  404e46:	74 05                	je     0x404e4d
  404e48:	83 c8 ff             	or     $0xffffffff,%eax
  404e4b:	eb 3a                	jmp    0x404e87
  404e4d:	a8 83                	test   $0x83,%al
  404e4f:	74 34                	je     0x404e85
  404e51:	56                   	push   %esi
  404e52:	e8 50 db ff ff       	call   0x4029a7
  404e57:	56                   	push   %esi
  404e58:	8b f8                	mov    %eax,%edi
  404e5a:	e8 17 0a 00 00       	call   0x405876
  404e5f:	ff 76 10             	pushl  0x10(%esi)
  404e62:	e8 5c 09 00 00       	call   0x4057c3
  404e67:	83 c4 0c             	add    $0xc,%esp
  404e6a:	85 c0                	test   %eax,%eax
  404e6c:	7d 05                	jge    0x404e73
  404e6e:	83 cf ff             	or     $0xffffffff,%edi
  404e71:	eb 12                	jmp    0x404e85
  404e73:	8b 46 1c             	mov    0x1c(%esi),%eax
  404e76:	85 c0                	test   %eax,%eax
  404e78:	74 0b                	je     0x404e85
  404e7a:	50                   	push   %eax
  404e7b:	e8 f3 df ff ff       	call   0x402e73
  404e80:	83 66 1c 00          	andl   $0x0,0x1c(%esi)
  404e84:	59                   	pop    %ecx
  404e85:	8b c7                	mov    %edi,%eax
  404e87:	83 66 0c 00          	andl   $0x0,0xc(%esi)
  404e8b:	5f                   	pop    %edi
  404e8c:	5e                   	pop    %esi
  404e8d:	c3                   	ret    
  404e8e:	55                   	push   %ebp
  404e8f:	8b ec                	mov    %esp,%ebp
  404e91:	6a ff                	push   $0xffffffff
  404e93:	68 98 64 40 00       	push   $0x406498
  404e98:	68 30 26 40 00       	push   $0x402630
  404e9d:	64 a1 00 00 00 00    	mov    %fs:0x0,%eax
  404ea3:	50                   	push   %eax
  404ea4:	64 89 25 00 00 00 00 	mov    %esp,%fs:0x0
  404eab:	83 ec 1c             	sub    $0x1c,%esp
  404eae:	53                   	push   %ebx
  404eaf:	56                   	push   %esi
  404eb0:	57                   	push   %edi
  404eb1:	89 65 e8             	mov    %esp,-0x18(%ebp)
  404eb4:	33 ff                	xor    %edi,%edi
  404eb6:	39 3d 98 9a 40 00    	cmp    %edi,0x409a98
  404ebc:	75 46                	jne    0x404f04
  404ebe:	57                   	push   %edi
  404ebf:	57                   	push   %edi
  404ec0:	6a 01                	push   $0x1
  404ec2:	5b                   	pop    %ebx
  404ec3:	53                   	push   %ebx
  404ec4:	68 90 64 40 00       	push   $0x406490
  404ec9:	be 00 01 00 00       	mov    $0x100,%esi
  404ece:	56                   	push   %esi
  404ecf:	57                   	push   %edi
  404ed0:	ff 15 98 60 40 00    	call   *0x406098
  404ed6:	85 c0                	test   %eax,%eax
  404ed8:	74 08                	je     0x404ee2
  404eda:	89 1d 98 9a 40 00    	mov    %ebx,0x409a98
  404ee0:	eb 22                	jmp    0x404f04
  404ee2:	57                   	push   %edi
  404ee3:	57                   	push   %edi
  404ee4:	53                   	push   %ebx
  404ee5:	68 8c 64 40 00       	push   $0x40648c
  404eea:	56                   	push   %esi
  404eeb:	57                   	push   %edi
  404eec:	ff 15 94 60 40 00    	call   *0x406094
  404ef2:	85 c0                	test   %eax,%eax
  404ef4:	0f 84 22 01 00 00    	je     0x40501c
  404efa:	c7 05 98 9a 40 00 02 	movl   $0x2,0x409a98
  404f01:	00 00 00 
  404f04:	39 7d 14             	cmp    %edi,0x14(%ebp)
  404f07:	7e 10                	jle    0x404f19
  404f09:	ff 75 14             	pushl  0x14(%ebp)
  404f0c:	ff 75 10             	pushl  0x10(%ebp)
  404f0f:	e8 9e 01 00 00       	call   0x4050b2
  404f14:	59                   	pop    %ecx
  404f15:	59                   	pop    %ecx
  404f16:	89 45 14             	mov    %eax,0x14(%ebp)
  404f19:	a1 98 9a 40 00       	mov    0x409a98,%eax
  404f1e:	83 f8 02             	cmp    $0x2,%eax
  404f21:	75 1d                	jne    0x404f40
  404f23:	ff 75 1c             	pushl  0x1c(%ebp)
  404f26:	ff 75 18             	pushl  0x18(%ebp)
  404f29:	ff 75 14             	pushl  0x14(%ebp)
  404f2c:	ff 75 10             	pushl  0x10(%ebp)
  404f2f:	ff 75 0c             	pushl  0xc(%ebp)
  404f32:	ff 75 08             	pushl  0x8(%ebp)
  404f35:	ff 15 94 60 40 00    	call   *0x406094
  404f3b:	e9 de 00 00 00       	jmp    0x40501e
  404f40:	83 f8 01             	cmp    $0x1,%eax
  404f43:	0f 85 d3 00 00 00    	jne    0x40501c
  404f49:	39 7d 20             	cmp    %edi,0x20(%ebp)
  404f4c:	75 08                	jne    0x404f56
  404f4e:	a1 90 9a 40 00       	mov    0x409a90,%eax
  404f53:	89 45 20             	mov    %eax,0x20(%ebp)
  404f56:	57                   	push   %edi
  404f57:	57                   	push   %edi
  404f58:	ff 75 14             	pushl  0x14(%ebp)
  404f5b:	ff 75 10             	pushl  0x10(%ebp)
  404f5e:	8b 45 24             	mov    0x24(%ebp),%eax
  404f61:	f7 d8                	neg    %eax
  404f63:	1b c0                	sbb    %eax,%eax
  404f65:	83 e0 08             	and    $0x8,%eax
  404f68:	40                   	inc    %eax
  404f69:	50                   	push   %eax
  404f6a:	ff 75 20             	pushl  0x20(%ebp)
  404f6d:	ff 15 90 60 40 00    	call   *0x406090
  404f73:	8b d8                	mov    %eax,%ebx
  404f75:	89 5d e4             	mov    %ebx,-0x1c(%ebp)
  404f78:	3b df                	cmp    %edi,%ebx
  404f7a:	0f 84 9c 00 00 00    	je     0x40501c
  404f80:	89 7d fc             	mov    %edi,-0x4(%ebp)
  404f83:	8d 04 1b             	lea    (%ebx,%ebx,1),%eax
  404f86:	83 c0 03             	add    $0x3,%eax
  404f89:	24 fc                	and    $0xfc,%al
  404f8b:	e8 10 eb ff ff       	call   0x403aa0
  404f90:	89 65 e8             	mov    %esp,-0x18(%ebp)
  404f93:	8b c4                	mov    %esp,%eax
  404f95:	89 45 dc             	mov    %eax,-0x24(%ebp)
  404f98:	83 4d fc ff          	orl    $0xffffffff,-0x4(%ebp)
  404f9c:	eb 13                	jmp    0x404fb1
  404f9e:	6a 01                	push   $0x1
  404fa0:	58                   	pop    %eax
  404fa1:	c3                   	ret    
  404fa2:	8b 65 e8             	mov    -0x18(%ebp),%esp
  404fa5:	33 ff                	xor    %edi,%edi
  404fa7:	89 7d dc             	mov    %edi,-0x24(%ebp)
  404faa:	83 4d fc ff          	orl    $0xffffffff,-0x4(%ebp)
  404fae:	8b 5d e4             	mov    -0x1c(%ebp),%ebx
  404fb1:	39 7d dc             	cmp    %edi,-0x24(%ebp)
  404fb4:	74 66                	je     0x40501c
  404fb6:	53                   	push   %ebx
  404fb7:	ff 75 dc             	pushl  -0x24(%ebp)
  404fba:	ff 75 14             	pushl  0x14(%ebp)
  404fbd:	ff 75 10             	pushl  0x10(%ebp)
  404fc0:	6a 01                	push   $0x1
  404fc2:	ff 75 20             	pushl  0x20(%ebp)
  404fc5:	ff 15 90 60 40 00    	call   *0x406090
  404fcb:	85 c0                	test   %eax,%eax
  404fcd:	74 4d                	je     0x40501c
  404fcf:	57                   	push   %edi
  404fd0:	57                   	push   %edi
  404fd1:	53                   	push   %ebx
  404fd2:	ff 75 dc             	pushl  -0x24(%ebp)
  404fd5:	ff 75 0c             	pushl  0xc(%ebp)
  404fd8:	ff 75 08             	pushl  0x8(%ebp)
  404fdb:	ff 15 98 60 40 00    	call   *0x406098
  404fe1:	8b f0                	mov    %eax,%esi
  404fe3:	89 75 d8             	mov    %esi,-0x28(%ebp)
  404fe6:	3b f7                	cmp    %edi,%esi
  404fe8:	74 32                	je     0x40501c
  404fea:	f6 45 0d 04          	testb  $0x4,0xd(%ebp)
  404fee:	74 40                	je     0x405030
  404ff0:	39 7d 1c             	cmp    %edi,0x1c(%ebp)
  404ff3:	0f 84 b2 00 00 00    	je     0x4050ab
  404ff9:	3b 75 1c             	cmp    0x1c(%ebp),%esi
  404ffc:	7f 1e                	jg     0x40501c
  404ffe:	ff 75 1c             	pushl  0x1c(%ebp)
  405001:	ff 75 18             	pushl  0x18(%ebp)
  405004:	53                   	push   %ebx
  405005:	ff 75 dc             	pushl  -0x24(%ebp)
  405008:	ff 75 0c             	pushl  0xc(%ebp)
  40500b:	ff 75 08             	pushl  0x8(%ebp)
  40500e:	ff 15 98 60 40 00    	call   *0x406098
  405014:	85 c0                	test   %eax,%eax
  405016:	0f 85 8f 00 00 00    	jne    0x4050ab
  40501c:	33 c0                	xor    %eax,%eax
  40501e:	8d 65 c8             	lea    -0x38(%ebp),%esp
  405021:	8b 4d f0             	mov    -0x10(%ebp),%ecx
  405024:	64 89 0d 00 00 00 00 	mov    %ecx,%fs:0x0
  40502b:	5f                   	pop    %edi
  40502c:	5e                   	pop    %esi
  40502d:	5b                   	pop    %ebx
  40502e:	c9                   	leave  
  40502f:	c3                   	ret    
  405030:	c7 45 fc 01 00 00 00 	movl   $0x1,-0x4(%ebp)
  405037:	8d 04 36             	lea    (%esi,%esi,1),%eax
  40503a:	83 c0 03             	add    $0x3,%eax
  40503d:	24 fc                	and    $0xfc,%al
  40503f:	e8 5c ea ff ff       	call   0x403aa0
  405044:	89 65 e8             	mov    %esp,-0x18(%ebp)
  405047:	8b dc                	mov    %esp,%ebx
  405049:	89 5d e0             	mov    %ebx,-0x20(%ebp)
  40504c:	83 4d fc ff          	orl    $0xffffffff,-0x4(%ebp)
  405050:	eb 12                	jmp    0x405064
  405052:	6a 01                	push   $0x1
  405054:	58                   	pop    %eax
  405055:	c3                   	ret    
  405056:	8b 65 e8             	mov    -0x18(%ebp),%esp
  405059:	33 ff                	xor    %edi,%edi
  40505b:	33 db                	xor    %ebx,%ebx
  40505d:	83 4d fc ff          	orl    $0xffffffff,-0x4(%ebp)
  405061:	8b 75 d8             	mov    -0x28(%ebp),%esi
  405064:	3b df                	cmp    %edi,%ebx
  405066:	74 b4                	je     0x40501c
  405068:	56                   	push   %esi
  405069:	53                   	push   %ebx
  40506a:	ff 75 e4             	pushl  -0x1c(%ebp)
  40506d:	ff 75 dc             	pushl  -0x24(%ebp)
  405070:	ff 75 0c             	pushl  0xc(%ebp)
  405073:	ff 75 08             	pushl  0x8(%ebp)
  405076:	ff 15 98 60 40 00    	call   *0x406098
  40507c:	85 c0                	test   %eax,%eax
  40507e:	74 9c                	je     0x40501c
  405080:	39 7d 1c             	cmp    %edi,0x1c(%ebp)
  405083:	57                   	push   %edi
  405084:	57                   	push   %edi
  405085:	75 04                	jne    0x40508b
  405087:	57                   	push   %edi
  405088:	57                   	push   %edi
  405089:	eb 06                	jmp    0x405091
  40508b:	ff 75 1c             	pushl  0x1c(%ebp)
  40508e:	ff 75 18             	pushl  0x18(%ebp)
  405091:	56                   	push   %esi
  405092:	53                   	push   %ebx
  405093:	68 20 02 00 00       	push   $0x220
  405098:	ff 75 20             	pushl  0x20(%ebp)
  40509b:	ff 15 24 60 40 00    	call   *0x406024
  4050a1:	8b f0                	mov    %eax,%esi
  4050a3:	3b f7                	cmp    %edi,%esi
  4050a5:	0f 84 71 ff ff ff    	je     0x40501c
  4050ab:	8b c6                	mov    %esi,%eax
  4050ad:	e9 6c ff ff ff       	jmp    0x40501e
  4050b2:	8b 54 24 08          	mov    0x8(%esp),%edx
  4050b6:	8b 44 24 04          	mov    0x4(%esp),%eax
  4050ba:	85 d2                	test   %edx,%edx
  4050bc:	56                   	push   %esi
  4050bd:	8d 4a ff             	lea    -0x1(%edx),%ecx
  4050c0:	74 0d                	je     0x4050cf
  4050c2:	80 38 00             	cmpb   $0x0,(%eax)
  4050c5:	74 08                	je     0x4050cf
  4050c7:	40                   	inc    %eax
  4050c8:	8b f1                	mov    %ecx,%esi
  4050ca:	49                   	dec    %ecx
  4050cb:	85 f6                	test   %esi,%esi
  4050cd:	75 f3                	jne    0x4050c2
  4050cf:	80 38 00             	cmpb   $0x0,(%eax)
  4050d2:	5e                   	pop    %esi
  4050d3:	75 05                	jne    0x4050da
  4050d5:	2b 44 24 04          	sub    0x4(%esp),%eax
  4050d9:	c3                   	ret    
  4050da:	8b c2                	mov    %edx,%eax
  4050dc:	c3                   	ret    
  4050dd:	55                   	push   %ebp
  4050de:	8b ec                	mov    %esp,%ebp
  4050e0:	6a ff                	push   $0xffffffff
  4050e2:	68 b0 64 40 00       	push   $0x4064b0
  4050e7:	68 30 26 40 00       	push   $0x402630
  4050ec:	64 a1 00 00 00 00    	mov    %fs:0x0,%eax
  4050f2:	50                   	push   %eax
  4050f3:	64 89 25 00 00 00 00 	mov    %esp,%fs:0x0
  4050fa:	83 ec 18             	sub    $0x18,%esp
  4050fd:	53                   	push   %ebx
  4050fe:	56                   	push   %esi
  4050ff:	57                   	push   %edi
  405100:	89 65 e8             	mov    %esp,-0x18(%ebp)
  405103:	a1 9c 9a 40 00       	mov    0x409a9c,%eax
  405108:	33 db                	xor    %ebx,%ebx
  40510a:	3b c3                	cmp    %ebx,%eax
  40510c:	75 3e                	jne    0x40514c
  40510e:	8d 45 e4             	lea    -0x1c(%ebp),%eax
  405111:	50                   	push   %eax
  405112:	6a 01                	push   $0x1
  405114:	5e                   	pop    %esi
  405115:	56                   	push   %esi
  405116:	68 90 64 40 00       	push   $0x406490
  40511b:	56                   	push   %esi
  40511c:	ff 15 a0 60 40 00    	call   *0x4060a0
  405122:	85 c0                	test   %eax,%eax
  405124:	74 04                	je     0x40512a
  405126:	8b c6                	mov    %esi,%eax
  405128:	eb 1d                	jmp    0x405147
  40512a:	8d 45 e4             	lea    -0x1c(%ebp),%eax
  40512d:	50                   	push   %eax
  40512e:	56                   	push   %esi
  40512f:	68 8c 64 40 00       	push   $0x40648c
  405134:	56                   	push   %esi
  405135:	53                   	push   %ebx
  405136:	ff 15 9c 60 40 00    	call   *0x40609c
  40513c:	85 c0                	test   %eax,%eax
  40513e:	0f 84 ce 00 00 00    	je     0x405212
  405144:	6a 02                	push   $0x2
  405146:	58                   	pop    %eax
  405147:	a3 9c 9a 40 00       	mov    %eax,0x409a9c
  40514c:	83 f8 02             	cmp    $0x2,%eax
  40514f:	75 24                	jne    0x405175
  405151:	8b 45 1c             	mov    0x1c(%ebp),%eax
  405154:	3b c3                	cmp    %ebx,%eax
  405156:	75 05                	jne    0x40515d
  405158:	a1 80 9a 40 00       	mov    0x409a80,%eax
  40515d:	ff 75 14             	pushl  0x14(%ebp)
  405160:	ff 75 10             	pushl  0x10(%ebp)
  405163:	ff 75 0c             	pushl  0xc(%ebp)
  405166:	ff 75 08             	pushl  0x8(%ebp)
  405169:	50                   	push   %eax
  40516a:	ff 15 9c 60 40 00    	call   *0x40609c
  405170:	e9 9f 00 00 00       	jmp    0x405214
  405175:	83 f8 01             	cmp    $0x1,%eax
  405178:	0f 85 94 00 00 00    	jne    0x405212
  40517e:	39 5d 18             	cmp    %ebx,0x18(%ebp)
  405181:	75 08                	jne    0x40518b
  405183:	a1 90 9a 40 00       	mov    0x409a90,%eax
  405188:	89 45 18             	mov    %eax,0x18(%ebp)
  40518b:	53                   	push   %ebx
  40518c:	53                   	push   %ebx
  40518d:	ff 75 10             	pushl  0x10(%ebp)
  405190:	ff 75 0c             	pushl  0xc(%ebp)
  405193:	8b 45 20             	mov    0x20(%ebp),%eax
  405196:	f7 d8                	neg    %eax
  405198:	1b c0                	sbb    %eax,%eax
  40519a:	83 e0 08             	and    $0x8,%eax
  40519d:	40                   	inc    %eax
  40519e:	50                   	push   %eax
  40519f:	ff 75 18             	pushl  0x18(%ebp)
  4051a2:	ff 15 90 60 40 00    	call   *0x406090
  4051a8:	89 45 e0             	mov    %eax,-0x20(%ebp)
  4051ab:	3b c3                	cmp    %ebx,%eax
  4051ad:	74 63                	je     0x405212
  4051af:	89 5d fc             	mov    %ebx,-0x4(%ebp)
  4051b2:	8d 3c 00             	lea    (%eax,%eax,1),%edi
  4051b5:	8b c7                	mov    %edi,%eax
  4051b7:	83 c0 03             	add    $0x3,%eax
  4051ba:	24 fc                	and    $0xfc,%al
  4051bc:	e8 df e8 ff ff       	call   0x403aa0
  4051c1:	89 65 e8             	mov    %esp,-0x18(%ebp)
  4051c4:	8b f4                	mov    %esp,%esi
  4051c6:	89 75 dc             	mov    %esi,-0x24(%ebp)
  4051c9:	57                   	push   %edi
  4051ca:	53                   	push   %ebx
  4051cb:	56                   	push   %esi
  4051cc:	e8 0f fc ff ff       	call   0x404de0
  4051d1:	83 c4 0c             	add    $0xc,%esp
  4051d4:	eb 0b                	jmp    0x4051e1
  4051d6:	6a 01                	push   $0x1
  4051d8:	58                   	pop    %eax
  4051d9:	c3                   	ret    
  4051da:	8b 65 e8             	mov    -0x18(%ebp),%esp
  4051dd:	33 db                	xor    %ebx,%ebx
  4051df:	33 f6                	xor    %esi,%esi
  4051e1:	83 4d fc ff          	orl    $0xffffffff,-0x4(%ebp)
  4051e5:	3b f3                	cmp    %ebx,%esi
  4051e7:	74 29                	je     0x405212
  4051e9:	ff 75 e0             	pushl  -0x20(%ebp)
  4051ec:	56                   	push   %esi
  4051ed:	ff 75 10             	pushl  0x10(%ebp)
  4051f0:	ff 75 0c             	pushl  0xc(%ebp)
  4051f3:	6a 01                	push   $0x1
  4051f5:	ff 75 18             	pushl  0x18(%ebp)
  4051f8:	ff 15 90 60 40 00    	call   *0x406090
  4051fe:	3b c3                	cmp    %ebx,%eax
  405200:	74 10                	je     0x405212
  405202:	ff 75 14             	pushl  0x14(%ebp)
  405205:	50                   	push   %eax
  405206:	56                   	push   %esi
  405207:	ff 75 08             	pushl  0x8(%ebp)
  40520a:	ff 15 a0 60 40 00    	call   *0x4060a0
  405210:	eb 02                	jmp    0x405214
  405212:	33 c0                	xor    %eax,%eax
  405214:	8d 65 cc             	lea    -0x34(%ebp),%esp
  405217:	8b 4d f0             	mov    -0x10(%ebp),%ecx
  40521a:	64 89 0d 00 00 00 00 	mov    %ecx,%fs:0x0
  405221:	5f                   	pop    %edi
  405222:	5e                   	pop    %esi
  405223:	5b                   	pop    %ebx
  405224:	c9                   	leave  
  405225:	c3                   	ret    
  405226:	55                   	push   %ebp
  405227:	8b ec                	mov    %esp,%ebp
  405229:	51                   	push   %ecx
  40522a:	83 3d 80 9a 40 00 00 	cmpl   $0x0,0x409a80
  405231:	53                   	push   %ebx
  405232:	75 1d                	jne    0x405251
  405234:	8b 45 08             	mov    0x8(%ebp),%eax
  405237:	83 f8 61             	cmp    $0x61,%eax
  40523a:	0f 8c af 00 00 00    	jl     0x4052ef
  405240:	83 f8 7a             	cmp    $0x7a,%eax
  405243:	0f 8f a6 00 00 00    	jg     0x4052ef
  405249:	83 e8 20             	sub    $0x20,%eax
  40524c:	e9 9e 00 00 00       	jmp    0x4052ef
  405251:	8b 5d 08             	mov    0x8(%ebp),%ebx
  405254:	81 fb 00 01 00 00    	cmp    $0x100,%ebx
  40525a:	7d 28                	jge    0x405284
  40525c:	83 3d 70 97 40 00 01 	cmpl   $0x1,0x409770
  405263:	7e 0c                	jle    0x405271
  405265:	6a 02                	push   $0x2
  405267:	53                   	push   %ebx
  405268:	e8 85 00 00 00       	call   0x4052f2
  40526d:	59                   	pop    %ecx
  40526e:	59                   	pop    %ecx
  40526f:	eb 0b                	jmp    0x40527c
  405271:	a1 28 74 40 00       	mov    0x407428,%eax
  405276:	8a 04 58             	mov    (%eax,%ebx,2),%al
  405279:	83 e0 02             	and    $0x2,%eax
  40527c:	85 c0                	test   %eax,%eax
  40527e:	75 04                	jne    0x405284
  405280:	8b c3                	mov    %ebx,%eax
  405282:	eb 6b                	jmp    0x4052ef
  405284:	8b 15 28 74 40 00    	mov    0x407428,%edx
  40528a:	8b c3                	mov    %ebx,%eax
  40528c:	c1 f8 08             	sar    $0x8,%eax
  40528f:	0f b6 c8             	movzbl %al,%ecx
  405292:	f6 44 4a 01 80       	testb  $0x80,0x1(%edx,%ecx,2)
  405297:	74 0e                	je     0x4052a7
  405299:	80 65 0a 00          	andb   $0x0,0xa(%ebp)
  40529d:	88 45 08             	mov    %al,0x8(%ebp)
  4052a0:	88 5d 09             	mov    %bl,0x9(%ebp)
  4052a3:	6a 02                	push   $0x2
  4052a5:	eb 09                	jmp    0x4052b0
  4052a7:	80 65 09 00          	andb   $0x0,0x9(%ebp)
  4052ab:	88 5d 08             	mov    %bl,0x8(%ebp)
  4052ae:	6a 01                	push   $0x1
  4052b0:	58                   	pop    %eax
  4052b1:	8d 4d fc             	lea    -0x4(%ebp),%ecx
  4052b4:	6a 01                	push   $0x1
  4052b6:	6a 00                	push   $0x0
  4052b8:	6a 03                	push   $0x3
  4052ba:	51                   	push   %ecx
  4052bb:	50                   	push   %eax
  4052bc:	8d 45 08             	lea    0x8(%ebp),%eax
  4052bf:	50                   	push   %eax
  4052c0:	68 00 02 00 00       	push   $0x200
  4052c5:	ff 35 80 9a 40 00    	pushl  0x409a80
  4052cb:	e8 be fb ff ff       	call   0x404e8e
  4052d0:	83 c4 20             	add    $0x20,%esp
  4052d3:	85 c0                	test   %eax,%eax
  4052d5:	74 a9                	je     0x405280
  4052d7:	83 f8 01             	cmp    $0x1,%eax
  4052da:	75 06                	jne    0x4052e2
  4052dc:	0f b6 45 fc          	movzbl -0x4(%ebp),%eax
  4052e0:	eb 0d                	jmp    0x4052ef
  4052e2:	0f b6 45 fd          	movzbl -0x3(%ebp),%eax
  4052e6:	0f b6 4d fc          	movzbl -0x4(%ebp),%ecx
  4052ea:	c1 e0 08             	shl    $0x8,%eax
  4052ed:	0b c1                	or     %ecx,%eax
  4052ef:	5b                   	pop    %ebx
  4052f0:	c9                   	leave  
  4052f1:	c3                   	ret    
  4052f2:	55                   	push   %ebp
  4052f3:	8b ec                	mov    %esp,%ebp
  4052f5:	51                   	push   %ecx
  4052f6:	8b 45 08             	mov    0x8(%ebp),%eax
  4052f9:	8d 48 01             	lea    0x1(%eax),%ecx
  4052fc:	81 f9 00 01 00 00    	cmp    $0x100,%ecx
  405302:	77 0c                	ja     0x405310
  405304:	8b 0d 28 74 40 00    	mov    0x407428,%ecx
  40530a:	0f b7 04 41          	movzwl (%ecx,%eax,2),%eax
  40530e:	eb 52                	jmp    0x405362
  405310:	8b c8                	mov    %eax,%ecx
  405312:	56                   	push   %esi
  405313:	8b 35 28 74 40 00    	mov    0x407428,%esi
  405319:	c1 f9 08             	sar    $0x8,%ecx
  40531c:	0f b6 d1             	movzbl %cl,%edx
  40531f:	f6 44 56 01 80       	testb  $0x80,0x1(%esi,%edx,2)
  405324:	5e                   	pop    %esi
  405325:	74 0e                	je     0x405335
  405327:	80 65 fe 00          	andb   $0x0,-0x2(%ebp)
  40532b:	88 4d fc             	mov    %cl,-0x4(%ebp)
  40532e:	88 45 fd             	mov    %al,-0x3(%ebp)
  405331:	6a 02                	push   $0x2
  405333:	eb 09                	jmp    0x40533e
  405335:	80 65 fd 00          	andb   $0x0,-0x3(%ebp)
  405339:	88 45 fc             	mov    %al,-0x4(%ebp)
  40533c:	6a 01                	push   $0x1
  40533e:	58                   	pop    %eax
  40533f:	8d 4d 0a             	lea    0xa(%ebp),%ecx
  405342:	6a 01                	push   $0x1
  405344:	6a 00                	push   $0x0
  405346:	6a 00                	push   $0x0
  405348:	51                   	push   %ecx
  405349:	50                   	push   %eax
  40534a:	8d 45 fc             	lea    -0x4(%ebp),%eax
  40534d:	50                   	push   %eax
  40534e:	6a 01                	push   $0x1
  405350:	e8 88 fd ff ff       	call   0x4050dd
  405355:	83 c4 1c             	add    $0x1c,%esp
  405358:	85 c0                	test   %eax,%eax
  40535a:	75 02                	jne    0x40535e
  40535c:	c9                   	leave  
  40535d:	c3                   	ret    
  40535e:	0f b7 45 0a          	movzwl 0xa(%ebp),%eax
  405362:	23 45 0c             	and    0xc(%ebp),%eax
  405365:	c9                   	leave  
  405366:	c3                   	ret    
  405367:	cc                   	int3   
  405368:	cc                   	int3   
  405369:	cc                   	int3   
  40536a:	cc                   	int3   
  40536b:	cc                   	int3   
  40536c:	cc                   	int3   
  40536d:	cc                   	int3   
  40536e:	cc                   	int3   
  40536f:	cc                   	int3   
  405370:	55                   	push   %ebp
  405371:	8b ec                	mov    %esp,%ebp
  405373:	57                   	push   %edi
  405374:	56                   	push   %esi
  405375:	8b 75 0c             	mov    0xc(%ebp),%esi
  405378:	8b 4d 10             	mov    0x10(%ebp),%ecx
  40537b:	8b 7d 08             	mov    0x8(%ebp),%edi
  40537e:	8b c1                	mov    %ecx,%eax
  405380:	8b d1                	mov    %ecx,%edx
  405382:	03 c6                	add    %esi,%eax
  405384:	3b fe                	cmp    %esi,%edi
  405386:	76 08                	jbe    0x405390
  405388:	3b f8                	cmp    %eax,%edi
  40538a:	0f 82 78 01 00 00    	jb     0x405508
  405390:	f7 c7 03 00 00 00    	test   $0x3,%edi
  405396:	75 14                	jne    0x4053ac
  405398:	c1 e9 02             	shr    $0x2,%ecx
  40539b:	83 e2 03             	and    $0x3,%edx
  40539e:	83 f9 08             	cmp    $0x8,%ecx
  4053a1:	72 29                	jb     0x4053cc
  4053a3:	f3 a5                	rep movsl %ds:(%esi),%es:(%edi)
  4053a5:	ff 24 95 b8 54 40 00 	jmp    *0x4054b8(,%edx,4)
  4053ac:	8b c7                	mov    %edi,%eax
  4053ae:	ba 03 00 00 00       	mov    $0x3,%edx
  4053b3:	83 e9 04             	sub    $0x4,%ecx
  4053b6:	72 0c                	jb     0x4053c4
  4053b8:	83 e0 03             	and    $0x3,%eax
  4053bb:	03 c8                	add    %eax,%ecx
  4053bd:	ff 24 85 d0 53 40 00 	jmp    *0x4053d0(,%eax,4)
  4053c4:	ff 24 8d c8 54 40 00 	jmp    *0x4054c8(,%ecx,4)
  4053cb:	90                   	nop
  4053cc:	ff 24 8d 4c 54 40 00 	jmp    *0x40544c(,%ecx,4)
  4053d3:	90                   	nop
  4053d4:	e0 53                	loopne 0x405429
  4053d6:	40                   	inc    %eax
  4053d7:	00 0c 54             	add    %cl,(%esp,%edx,2)
  4053da:	40                   	inc    %eax
  4053db:	00 30                	add    %dh,(%eax)
  4053dd:	54                   	push   %esp
  4053de:	40                   	inc    %eax
  4053df:	00 23                	add    %ah,(%ebx)
  4053e1:	d1 8a 06 88 07 8a    	rorl   -0x75f877fa(%edx)
  4053e7:	46                   	inc    %esi
  4053e8:	01 88 47 01 8a 46    	add    %ecx,0x468a0147(%eax)
  4053ee:	02 c1                	add    %cl,%al
  4053f0:	e9 02 88 47 02       	jmp    0x287dbf7
  4053f5:	83 c6 03             	add    $0x3,%esi
  4053f8:	83 c7 03             	add    $0x3,%edi
  4053fb:	83 f9 08             	cmp    $0x8,%ecx
  4053fe:	72 cc                	jb     0x4053cc
  405400:	f3 a5                	rep movsl %ds:(%esi),%es:(%edi)
  405402:	ff 24 95 b8 54 40 00 	jmp    *0x4054b8(,%edx,4)
  405409:	8d 49 00             	lea    0x0(%ecx),%ecx
  40540c:	23 d1                	and    %ecx,%edx
  40540e:	8a 06                	mov    (%esi),%al
  405410:	88 07                	mov    %al,(%edi)
  405412:	8a 46 01             	mov    0x1(%esi),%al
  405415:	c1 e9 02             	shr    $0x2,%ecx
  405418:	88 47 01             	mov    %al,0x1(%edi)
  40541b:	83 c6 02             	add    $0x2,%esi
  40541e:	83 c7 02             	add    $0x2,%edi
  405421:	83 f9 08             	cmp    $0x8,%ecx
  405424:	72 a6                	jb     0x4053cc
  405426:	f3 a5                	rep movsl %ds:(%esi),%es:(%edi)
  405428:	ff 24 95 b8 54 40 00 	jmp    *0x4054b8(,%edx,4)
  40542f:	90                   	nop
  405430:	23 d1                	and    %ecx,%edx
  405432:	8a 06                	mov    (%esi),%al
  405434:	88 07                	mov    %al,(%edi)
  405436:	46                   	inc    %esi
  405437:	c1 e9 02             	shr    $0x2,%ecx
  40543a:	47                   	inc    %edi
  40543b:	83 f9 08             	cmp    $0x8,%ecx
  40543e:	72 8c                	jb     0x4053cc
  405440:	f3 a5                	rep movsl %ds:(%esi),%es:(%edi)
  405442:	ff 24 95 b8 54 40 00 	jmp    *0x4054b8(,%edx,4)
  405449:	8d 49 00             	lea    0x0(%ecx),%ecx
  40544c:	af                   	scas   %es:(%edi),%eax
  40544d:	54                   	push   %esp
  40544e:	40                   	inc    %eax
  40544f:	00 9c 54 40 00 94 54 	add    %bl,0x54940040(%esp,%edx,2)
  405456:	40                   	inc    %eax
  405457:	00 8c 54 40 00 84 54 	add    %cl,0x54840040(%esp,%edx,2)
  40545e:	40                   	inc    %eax
  40545f:	00 7c 54 40          	add    %bh,0x40(%esp,%edx,2)
  405463:	00 74 54 40          	add    %dh,0x40(%esp,%edx,2)
  405467:	00 6c 54 40          	add    %ch,0x40(%esp,%edx,2)
  40546b:	00 8b 44 8e e4 89    	add    %cl,-0x761b71bc(%ebx)
  405471:	44                   	inc    %esp
  405472:	8f                   	(bad)  
  405473:	e4 8b                	in     $0x8b,%al
  405475:	44                   	inc    %esp
  405476:	8e e8                	mov    %eax,%gs
  405478:	89 44 8f e8          	mov    %eax,-0x18(%edi,%ecx,4)
  40547c:	8b 44 8e ec          	mov    -0x14(%esi,%ecx,4),%eax
  405480:	89 44 8f ec          	mov    %eax,-0x14(%edi,%ecx,4)
  405484:	8b 44 8e f0          	mov    -0x10(%esi,%ecx,4),%eax
  405488:	89 44 8f f0          	mov    %eax,-0x10(%edi,%ecx,4)
  40548c:	8b 44 8e f4          	mov    -0xc(%esi,%ecx,4),%eax
  405490:	89 44 8f f4          	mov    %eax,-0xc(%edi,%ecx,4)
  405494:	8b 44 8e f8          	mov    -0x8(%esi,%ecx,4),%eax
  405498:	89 44 8f f8          	mov    %eax,-0x8(%edi,%ecx,4)
  40549c:	8b 44 8e fc          	mov    -0x4(%esi,%ecx,4),%eax
  4054a0:	89 44 8f fc          	mov    %eax,-0x4(%edi,%ecx,4)
  4054a4:	8d 04 8d 00 00 00 00 	lea    0x0(,%ecx,4),%eax
  4054ab:	03 f0                	add    %eax,%esi
  4054ad:	03 f8                	add    %eax,%edi
  4054af:	ff 24 95 b8 54 40 00 	jmp    *0x4054b8(,%edx,4)
  4054b6:	8b ff                	mov    %edi,%edi
  4054b8:	c8 54 40 00          	enter  $0x4054,$0x0
  4054bc:	d0 54 40 00          	rclb   0x0(%eax,%eax,2)
  4054c0:	dc 54 40 00          	fcoml  0x0(%eax,%eax,2)
  4054c4:	f0 54                	lock push %esp
  4054c6:	40                   	inc    %eax
  4054c7:	00 8b 45 08 5e 5f    	add    %cl,0x5f5e0845(%ebx)
  4054cd:	c9                   	leave  
  4054ce:	c3                   	ret    
  4054cf:	90                   	nop
  4054d0:	8a 06                	mov    (%esi),%al
  4054d2:	88 07                	mov    %al,(%edi)
  4054d4:	8b 45 08             	mov    0x8(%ebp),%eax
  4054d7:	5e                   	pop    %esi
  4054d8:	5f                   	pop    %edi
  4054d9:	c9                   	leave  
  4054da:	c3                   	ret    
  4054db:	90                   	nop
  4054dc:	8a 06                	mov    (%esi),%al
  4054de:	88 07                	mov    %al,(%edi)
  4054e0:	8a 46 01             	mov    0x1(%esi),%al
  4054e3:	88 47 01             	mov    %al,0x1(%edi)
  4054e6:	8b 45 08             	mov    0x8(%ebp),%eax
  4054e9:	5e                   	pop    %esi
  4054ea:	5f                   	pop    %edi
  4054eb:	c9                   	leave  
  4054ec:	c3                   	ret    
  4054ed:	8d 49 00             	lea    0x0(%ecx),%ecx
  4054f0:	8a 06                	mov    (%esi),%al
  4054f2:	88 07                	mov    %al,(%edi)
  4054f4:	8a 46 01             	mov    0x1(%esi),%al
  4054f7:	88 47 01             	mov    %al,0x1(%edi)
  4054fa:	8a 46 02             	mov    0x2(%esi),%al
  4054fd:	88 47 02             	mov    %al,0x2(%edi)
  405500:	8b 45 08             	mov    0x8(%ebp),%eax
  405503:	5e                   	pop    %esi
  405504:	5f                   	pop    %edi
  405505:	c9                   	leave  
  405506:	c3                   	ret    
  405507:	90                   	nop
  405508:	8d 74 31 fc          	lea    -0x4(%ecx,%esi,1),%esi
  40550c:	8d 7c 39 fc          	lea    -0x4(%ecx,%edi,1),%edi
  405510:	f7 c7 03 00 00 00    	test   $0x3,%edi
  405516:	75 24                	jne    0x40553c
  405518:	c1 e9 02             	shr    $0x2,%ecx
  40551b:	83 e2 03             	and    $0x3,%edx
  40551e:	83 f9 08             	cmp    $0x8,%ecx
  405521:	72 0d                	jb     0x405530
  405523:	fd                   	std    
  405524:	f3 a5                	rep movsl %ds:(%esi),%es:(%edi)
  405526:	fc                   	cld    
  405527:	ff 24 95 50 56 40 00 	jmp    *0x405650(,%edx,4)
  40552e:	8b ff                	mov    %edi,%edi
  405530:	f7 d9                	neg    %ecx
  405532:	ff 24 8d 00 56 40 00 	jmp    *0x405600(,%ecx,4)
  405539:	8d 49 00             	lea    0x0(%ecx),%ecx
  40553c:	8b c7                	mov    %edi,%eax
  40553e:	ba 03 00 00 00       	mov    $0x3,%edx
  405543:	83 f9 04             	cmp    $0x4,%ecx
  405546:	72 0c                	jb     0x405554
  405548:	83 e0 03             	and    $0x3,%eax
  40554b:	2b c8                	sub    %eax,%ecx
  40554d:	ff 24 85 58 55 40 00 	jmp    *0x405558(,%eax,4)
  405554:	ff 24 8d 50 56 40 00 	jmp    *0x405650(,%ecx,4)
  40555b:	90                   	nop
  40555c:	68 55 40 00 88       	push   $0x88004055
  405561:	55                   	push   %ebp
  405562:	40                   	inc    %eax
  405563:	00 b0 55 40 00 8a    	add    %dh,-0x75ffbfab(%eax)
  405569:	46                   	inc    %esi
  40556a:	03 23                	add    (%ebx),%esp
  40556c:	d1 88 47 03 4e c1    	rorl   -0x3eb1fcb9(%eax)
  405572:	e9 02 4f 83 f9       	jmp    0xf9c3a479
  405577:	08 72 b6             	or     %dh,-0x4a(%edx)
  40557a:	fd                   	std    
  40557b:	f3 a5                	rep movsl %ds:(%esi),%es:(%edi)
  40557d:	fc                   	cld    
  40557e:	ff 24 95 50 56 40 00 	jmp    *0x405650(,%edx,4)
  405585:	8d 49 00             	lea    0x0(%ecx),%ecx
  405588:	8a 46 03             	mov    0x3(%esi),%al
  40558b:	23 d1                	and    %ecx,%edx
  40558d:	88 47 03             	mov    %al,0x3(%edi)
  405590:	8a 46 02             	mov    0x2(%esi),%al
  405593:	c1 e9 02             	shr    $0x2,%ecx
  405596:	88 47 02             	mov    %al,0x2(%edi)
  405599:	83 ee 02             	sub    $0x2,%esi
  40559c:	83 ef 02             	sub    $0x2,%edi
  40559f:	83 f9 08             	cmp    $0x8,%ecx
  4055a2:	72 8c                	jb     0x405530
  4055a4:	fd                   	std    
  4055a5:	f3 a5                	rep movsl %ds:(%esi),%es:(%edi)
  4055a7:	fc                   	cld    
  4055a8:	ff 24 95 50 56 40 00 	jmp    *0x405650(,%edx,4)
  4055af:	90                   	nop
  4055b0:	8a 46 03             	mov    0x3(%esi),%al
  4055b3:	23 d1                	and    %ecx,%edx
  4055b5:	88 47 03             	mov    %al,0x3(%edi)
  4055b8:	8a 46 02             	mov    0x2(%esi),%al
  4055bb:	88 47 02             	mov    %al,0x2(%edi)
  4055be:	8a 46 01             	mov    0x1(%esi),%al
  4055c1:	c1 e9 02             	shr    $0x2,%ecx
  4055c4:	88 47 01             	mov    %al,0x1(%edi)
  4055c7:	83 ee 03             	sub    $0x3,%esi
  4055ca:	83 ef 03             	sub    $0x3,%edi
  4055cd:	83 f9 08             	cmp    $0x8,%ecx
  4055d0:	0f 82 5a ff ff ff    	jb     0x405530
  4055d6:	fd                   	std    
  4055d7:	f3 a5                	rep movsl %ds:(%esi),%es:(%edi)
  4055d9:	fc                   	cld    
  4055da:	ff 24 95 50 56 40 00 	jmp    *0x405650(,%edx,4)
  4055e1:	8d 49 00             	lea    0x0(%ecx),%ecx
  4055e4:	04 56                	add    $0x56,%al
  4055e6:	40                   	inc    %eax
  4055e7:	00 0c 56             	add    %cl,(%esi,%edx,2)
  4055ea:	40                   	inc    %eax
  4055eb:	00 14 56             	add    %dl,(%esi,%edx,2)
  4055ee:	40                   	inc    %eax
  4055ef:	00 1c 56             	add    %bl,(%esi,%edx,2)
  4055f2:	40                   	inc    %eax
  4055f3:	00 24 56             	add    %ah,(%esi,%edx,2)
  4055f6:	40                   	inc    %eax
  4055f7:	00 2c 56             	add    %ch,(%esi,%edx,2)
  4055fa:	40                   	inc    %eax
  4055fb:	00 34 56             	add    %dh,(%esi,%edx,2)
  4055fe:	40                   	inc    %eax
  4055ff:	00 47 56             	add    %al,0x56(%edi)
  405602:	40                   	inc    %eax
  405603:	00 8b 44 8e 1c 89    	add    %cl,-0x76e371bc(%ebx)
  405609:	44                   	inc    %esp
  40560a:	8f                   	(bad)  
  40560b:	1c 8b                	sbb    $0x8b,%al
  40560d:	44                   	inc    %esp
  40560e:	8e 18                	mov    (%eax),%ds
  405610:	89 44 8f 18          	mov    %eax,0x18(%edi,%ecx,4)
  405614:	8b 44 8e 14          	mov    0x14(%esi,%ecx,4),%eax
  405618:	89 44 8f 14          	mov    %eax,0x14(%edi,%ecx,4)
  40561c:	8b 44 8e 10          	mov    0x10(%esi,%ecx,4),%eax
  405620:	89 44 8f 10          	mov    %eax,0x10(%edi,%ecx,4)
  405624:	8b 44 8e 0c          	mov    0xc(%esi,%ecx,4),%eax
  405628:	89 44 8f 0c          	mov    %eax,0xc(%edi,%ecx,4)
  40562c:	8b 44 8e 08          	mov    0x8(%esi,%ecx,4),%eax
  405630:	89 44 8f 08          	mov    %eax,0x8(%edi,%ecx,4)
  405634:	8b 44 8e 04          	mov    0x4(%esi,%ecx,4),%eax
  405638:	89 44 8f 04          	mov    %eax,0x4(%edi,%ecx,4)
  40563c:	8d 04 8d 00 00 00 00 	lea    0x0(,%ecx,4),%eax
  405643:	03 f0                	add    %eax,%esi
  405645:	03 f8                	add    %eax,%edi
  405647:	ff 24 95 50 56 40 00 	jmp    *0x405650(,%edx,4)
  40564e:	8b ff                	mov    %edi,%edi
  405650:	60                   	pusha  
  405651:	56                   	push   %esi
  405652:	40                   	inc    %eax
  405653:	00 68 56             	add    %ch,0x56(%eax)
  405656:	40                   	inc    %eax
  405657:	00 78 56             	add    %bh,0x56(%eax)
  40565a:	40                   	inc    %eax
  40565b:	00 8c 56 40 00 8b 45 	add    %cl,0x458b0040(%esi,%edx,2)
  405662:	08 5e 5f             	or     %bl,0x5f(%esi)
  405665:	c9                   	leave  
  405666:	c3                   	ret    
  405667:	90                   	nop
  405668:	8a 46 03             	mov    0x3(%esi),%al
  40566b:	88 47 03             	mov    %al,0x3(%edi)
  40566e:	8b 45 08             	mov    0x8(%ebp),%eax
  405671:	5e                   	pop    %esi
  405672:	5f                   	pop    %edi
  405673:	c9                   	leave  
  405674:	c3                   	ret    
  405675:	8d 49 00             	lea    0x0(%ecx),%ecx
  405678:	8a 46 03             	mov    0x3(%esi),%al
  40567b:	88 47 03             	mov    %al,0x3(%edi)
  40567e:	8a 46 02             	mov    0x2(%esi),%al
  405681:	88 47 02             	mov    %al,0x2(%edi)
  405684:	8b 45 08             	mov    0x8(%ebp),%eax
  405687:	5e                   	pop    %esi
  405688:	5f                   	pop    %edi
  405689:	c9                   	leave  
  40568a:	c3                   	ret    
  40568b:	90                   	nop
  40568c:	8a 46 03             	mov    0x3(%esi),%al
  40568f:	88 47 03             	mov    %al,0x3(%edi)
  405692:	8a 46 02             	mov    0x2(%esi),%al
  405695:	88 47 02             	mov    %al,0x2(%edi)
  405698:	8a 46 01             	mov    0x1(%esi),%al
  40569b:	88 47 01             	mov    %al,0x1(%edi)
  40569e:	8b 45 08             	mov    0x8(%ebp),%eax
  4056a1:	5e                   	pop    %esi
  4056a2:	5f                   	pop    %edi
  4056a3:	c9                   	leave  
  4056a4:	c3                   	ret    
  4056a5:	8b 4c 24 04          	mov    0x4(%esp),%ecx
  4056a9:	56                   	push   %esi
  4056aa:	3b 0d 00 9e 40 00    	cmp    0x409e00,%ecx
  4056b0:	57                   	push   %edi
  4056b1:	73 55                	jae    0x405708
  4056b3:	8b c1                	mov    %ecx,%eax
  4056b5:	8b f1                	mov    %ecx,%esi
  4056b7:	c1 f8 05             	sar    $0x5,%eax
  4056ba:	83 e6 1f             	and    $0x1f,%esi
  4056bd:	8d 3c 85 00 9d 40 00 	lea    0x409d00(,%eax,4),%edi
  4056c4:	c1 e6 03             	shl    $0x3,%esi
  4056c7:	8b 07                	mov    (%edi),%eax
  4056c9:	03 c6                	add    %esi,%eax
  4056cb:	f6 40 04 01          	testb  $0x1,0x4(%eax)
  4056cf:	74 37                	je     0x405708
  4056d1:	83 38 ff             	cmpl   $0xffffffff,(%eax)
  4056d4:	74 32                	je     0x405708
  4056d6:	83 3d 44 70 40 00 01 	cmpl   $0x1,0x407044
  4056dd:	75 1f                	jne    0x4056fe
  4056df:	33 c0                	xor    %eax,%eax
  4056e1:	2b c8                	sub    %eax,%ecx
  4056e3:	74 10                	je     0x4056f5
  4056e5:	49                   	dec    %ecx
  4056e6:	74 08                	je     0x4056f0
  4056e8:	49                   	dec    %ecx
  4056e9:	75 13                	jne    0x4056fe
  4056eb:	50                   	push   %eax
  4056ec:	6a f4                	push   $0xfffffff4
  4056ee:	eb 08                	jmp    0x4056f8
  4056f0:	50                   	push   %eax
  4056f1:	6a f5                	push   $0xfffffff5
  4056f3:	eb 03                	jmp    0x4056f8
  4056f5:	50                   	push   %eax
  4056f6:	6a f6                	push   $0xfffffff6
  4056f8:	ff 15 a4 60 40 00    	call   *0x4060a4
  4056fe:	8b 07                	mov    (%edi),%eax
  405700:	83 0c 30 ff          	orl    $0xffffffff,(%eax,%esi,1)
  405704:	33 c0                	xor    %eax,%eax
  405706:	eb 14                	jmp    0x40571c
  405708:	83 25 04 99 40 00 00 	andl   $0x0,0x409904
  40570f:	c7 05 00 99 40 00 09 	movl   $0x9,0x409900
  405716:	00 00 00 
  405719:	83 c8 ff             	or     $0xffffffff,%eax
  40571c:	5f                   	pop    %edi
  40571d:	5e                   	pop    %esi
  40571e:	c3                   	ret    
  40571f:	8b 44 24 04          	mov    0x4(%esp),%eax
  405723:	3b 05 00 9e 40 00    	cmp    0x409e00,%eax
  405729:	73 1c                	jae    0x405747
  40572b:	8b c8                	mov    %eax,%ecx
  40572d:	83 e0 1f             	and    $0x1f,%eax
  405730:	c1 f9 05             	sar    $0x5,%ecx
  405733:	8b 0c 8d 00 9d 40 00 	mov    0x409d00(,%ecx,4),%ecx
  40573a:	f6 44 c1 04 01       	testb  $0x1,0x4(%ecx,%eax,8)
  40573f:	8d 04 c1             	lea    (%ecx,%eax,8),%eax
  405742:	74 03                	je     0x405747
  405744:	8b 00                	mov    (%eax),%eax
  405746:	c3                   	ret    
  405747:	83 25 04 99 40 00 00 	andl   $0x0,0x409904
  40574e:	c7 05 00 99 40 00 09 	movl   $0x9,0x409900
  405755:	00 00 00 
  405758:	83 c8 ff             	or     $0xffffffff,%eax
  40575b:	c3                   	ret    
  40575c:	8b 4c 24 04          	mov    0x4(%esp),%ecx
  405760:	33 d2                	xor    %edx,%edx
  405762:	89 0d 04 99 40 00    	mov    %ecx,0x409904
  405768:	b8 80 97 40 00       	mov    $0x409780,%eax
  40576d:	3b 08                	cmp    (%eax),%ecx
  40576f:	74 20                	je     0x405791
  405771:	83 c0 08             	add    $0x8,%eax
  405774:	42                   	inc    %edx
  405775:	3d e8 98 40 00       	cmp    $0x4098e8,%eax
  40577a:	7c f1                	jl     0x40576d
  40577c:	83 f9 13             	cmp    $0x13,%ecx
  40577f:	72 1d                	jb     0x40579e
  405781:	83 f9 24             	cmp    $0x24,%ecx
  405784:	77 18                	ja     0x40579e
  405786:	c7 05 00 99 40 00 0d 	movl   $0xd,0x409900
  40578d:	00 00 00 
  405790:	c3                   	ret    
  405791:	8b 04 d5 84 97 40 00 	mov    0x409784(,%edx,8),%eax
  405798:	a3 00 99 40 00       	mov    %eax,0x409900
  40579d:	c3                   	ret    
  40579e:	81 f9 bc 00 00 00    	cmp    $0xbc,%ecx
  4057a4:	72 12                	jb     0x4057b8
  4057a6:	81 f9 ca 00 00 00    	cmp    $0xca,%ecx
  4057ac:	c7 05 00 99 40 00 08 	movl   $0x8,0x409900
  4057b3:	00 00 00 
  4057b6:	76 0a                	jbe    0x4057c2
  4057b8:	c7 05 00 99 40 00 16 	movl   $0x16,0x409900
  4057bf:	00 00 00 
  4057c2:	c3                   	ret    
  4057c3:	53                   	push   %ebx
  4057c4:	55                   	push   %ebp
  4057c5:	56                   	push   %esi
  4057c6:	57                   	push   %edi
  4057c7:	8b 7c 24 14          	mov    0x14(%esp),%edi
  4057cb:	3b 3d 00 9e 40 00    	cmp    0x409e00,%edi
  4057d1:	0f 83 86 00 00 00    	jae    0x40585d
  4057d7:	8b c7                	mov    %edi,%eax
  4057d9:	8b f7                	mov    %edi,%esi
  4057db:	c1 f8 05             	sar    $0x5,%eax
  4057de:	83 e6 1f             	and    $0x1f,%esi
  4057e1:	8d 1c 85 00 9d 40 00 	lea    0x409d00(,%eax,4),%ebx
  4057e8:	c1 e6 03             	shl    $0x3,%esi
  4057eb:	8b 03                	mov    (%ebx),%eax
  4057ed:	f6 44 30 04 01       	testb  $0x1,0x4(%eax,%esi,1)
  4057f2:	74 69                	je     0x40585d
  4057f4:	57                   	push   %edi
  4057f5:	e8 25 ff ff ff       	call   0x40571f
  4057fa:	83 f8 ff             	cmp    $0xffffffff,%eax
  4057fd:	59                   	pop    %ecx
  4057fe:	74 3c                	je     0x40583c
  405800:	83 ff 01             	cmp    $0x1,%edi
  405803:	74 05                	je     0x40580a
  405805:	83 ff 02             	cmp    $0x2,%edi
  405808:	75 16                	jne    0x405820
  40580a:	6a 02                	push   $0x2
  40580c:	e8 0e ff ff ff       	call   0x40571f
  405811:	6a 01                	push   $0x1
  405813:	8b e8                	mov    %eax,%ebp
  405815:	e8 05 ff ff ff       	call   0x40571f
  40581a:	59                   	pop    %ecx
  40581b:	3b c5                	cmp    %ebp,%eax
  40581d:	59                   	pop    %ecx
  40581e:	74 1c                	je     0x40583c
  405820:	57                   	push   %edi
  405821:	e8 f9 fe ff ff       	call   0x40571f
  405826:	59                   	pop    %ecx
  405827:	50                   	push   %eax
  405828:	ff 15 a8 60 40 00    	call   *0x4060a8
  40582e:	85 c0                	test   %eax,%eax
  405830:	75 0a                	jne    0x40583c
  405832:	ff 15 84 60 40 00    	call   *0x406084
  405838:	8b e8                	mov    %eax,%ebp
  40583a:	eb 02                	jmp    0x40583e
  40583c:	33 ed                	xor    %ebp,%ebp
  40583e:	57                   	push   %edi
  40583f:	e8 61 fe ff ff       	call   0x4056a5
  405844:	8b 03                	mov    (%ebx),%eax
  405846:	59                   	pop    %ecx
  405847:	80 64 30 04 00       	andb   $0x0,0x4(%eax,%esi,1)
  40584c:	85 ed                	test   %ebp,%ebp
  40584e:	74 09                	je     0x405859
  405850:	55                   	push   %ebp
  405851:	e8 06 ff ff ff       	call   0x40575c
  405856:	59                   	pop    %ecx
  405857:	eb 15                	jmp    0x40586e
  405859:	33 c0                	xor    %eax,%eax
  40585b:	eb 14                	jmp    0x405871
  40585d:	83 25 04 99 40 00 00 	andl   $0x0,0x409904
  405864:	c7 05 00 99 40 00 09 	movl   $0x9,0x409900
  40586b:	00 00 00 
  40586e:	83 c8 ff             	or     $0xffffffff,%eax
  405871:	5f                   	pop    %edi
  405872:	5e                   	pop    %esi
  405873:	5d                   	pop    %ebp
  405874:	5b                   	pop    %ebx
  405875:	c3                   	ret    
  405876:	56                   	push   %esi
  405877:	8b 74 24 08          	mov    0x8(%esp),%esi
  40587b:	8b 46 0c             	mov    0xc(%esi),%eax
  40587e:	a8 83                	test   $0x83,%al
  405880:	74 1d                	je     0x40589f
  405882:	a8 08                	test   $0x8,%al
  405884:	74 19                	je     0x40589f
  405886:	ff 76 08             	pushl  0x8(%esi)
  405889:	e8 e5 d5 ff ff       	call   0x402e73
  40588e:	66 81 66 0c f7 fb    	andw   $0xfbf7,0xc(%esi)
  405894:	33 c0                	xor    %eax,%eax
  405896:	59                   	pop    %ecx
  405897:	89 06                	mov    %eax,(%esi)
  405899:	89 46 08             	mov    %eax,0x8(%esi)
  40589c:	89 46 04             	mov    %eax,0x4(%esi)
  40589f:	5e                   	pop    %esi
  4058a0:	c3                   	ret    
  4058a1:	cc                   	int3   
  4058a2:	ff 25 5c 60 40 00    	jmp    *0x40605c
